(lp1
F1.0976544878300001
aF1.3680465622
aF1.1374396105
aF1.6560158442999999
aF1.5197619476699999
aF1.70052410787
aF1.4208164941999999
aF1.5945617997299999
aF1.19092279111
aF1.6266361331700001
aF1.5868385282799999
aF1.0798386181499999
aF1.5830580076
aF1.44826111288
a.