(lp1
S'0\tA federal magistrate ordered him held pending the results of a psychological evaluation .'
p2
aS'1\tA white supremacist arrested after buying hand grenades from an undercover agent said he wanted to send mail bombs to Washington and Montgomery , authorities said .'
p3
aS'2\tAn ATF representative did not immediately return calls for comment Saturday .'
p4
aS"3\tChris Scott Gilliam said Chris Scott Gilliam did n't want to be like the Unabomber , who killed three person and wounded several others , a federal agent testified at a federal court hearing ."
p5
aS'4\tDefense attorney Gary Arm said at the hearing that Gilliam legally owned the firearm and has no criminal record .'
p6
aS'5\tGilliam , 27 , was charged with possessing an unregistered firearm found at his home in Foley along with what agents said was apparently a silencer .'
p7
aS'6\tHe said Gilliam also told the informant someone should kill the FBI sniper who killed the wife of white supremacist Randy weaver during an 11-day standoff in 1992 at Ruby Ridge , Idaho , along with civil rights lawyer Morris Dees of the Montgomery-based Southern Poverty Law Center .'
p8
aS'7\tIf convicted , Gilliam , could face six or seven years in prison , said Assistant U.S. Attorney Greg Bordenkircher .'
p9
aS'8\tNo charges were immediately filed in connection with the grenade purchase .'
p10
aS'9\tPasqualotto testified that Gilliam met with him Thursday , arriving with a loaded , cocked .45-caliber pistol on his hip and his 20-month-old son in his arms .'
p11
aS'10\tThe investigation started three weeks earlier when Gilliam contacted a man about obtaining C4 high explosive , Pasqualotto testified .'
p12
aS'11\tThere was no immediate indication what agencies or people might have been targeted in the national and state capital cities .'
p13
aS"12\t`` He wanted to kill everybody , '' David Pasqualotto , a special agent with the Bureau of Alcohol , Tobacco and Firearms , said Friday ."
p14
aS"13\t`` I knew he was n't quite right , '' Pasqualotto said ."
p15
a.