ccopy_reg
_reconstructor
p1
(csklearn.feature_extraction.text
CountVectorizer
p2
c__builtin__
object
p3
NtRp4
(dp5
S'decode_error'
p6
Vstrict
p7
sS'lowercase'
p8
I01
sS'stop_words'
p9
S'english'
p10
sS'tokenizer'
p11
g1
(ctokenizers
QuerySynsetExpandingTokenizer
p12
g3
NtRp13
(dp14
S'query'
p15
Vsouthern poverty law center describe the activities of morris dees and the southern poverty law center.
p16
sS'query_set'
p17
c__builtin__
set
p18
((lp19
Vand
p20
aVactivities
p21
aVcenter
p22
aVof
p23
aVdescribe
p24
aVsouthern
p25
aVdees
p26
aV.
aVmorris
p27
aVpoverty
p28
aVthe
p29
aVlaw
p30
atRp31
sS'first_run'
p32
I00
sS'query_tokens'
p33
(lp34
g25
ag28
ag30
ag22
ag24
ag29
ag21
ag23
ag27
ag26
ag20
aVthe
p35
aVsouthern
p36
aVpoverty
p37
aVlaw
p38
aVcenter
p39
aV.
asbsS'encoding'
p40
Vutf-8
p41
sS'token_pattern'
p42
V(?u)\u005cb\u005cw\u005cw+\u005cb
p43
sS'max_df'
p44
F1
sS'fixed_vocabulary'
p45
I00
sS'analyzer'
p46
Vword
p47
sS'vocabulary_'
p48
(dp49
Vpoverty law
p50
cnumpy.core.multiarray
scalar
p51
(cnumpy
dtype
p52
(S'i8'
I0
I1
tRp53
(I3
S'<'
NNNI-1
I-1
I0
tbS'\r\x00\x00\x00\x00\x00\x00\x00'
tRp54
sg21
g51
(g53
S'\x01\x00\x00\x00\x00\x00\x00\x00'
tRp55
sg25
g51
(g53
S'\x0e\x00\x00\x00\x00\x00\x00\x00'
tRp56
sg26
g51
(g53
S'\x06\x00\x00\x00\x00\x00\x00\x00'
tRp57
sg28
g51
(g53
S'\x0c\x00\x00\x00\x00\x00\x00\x00'
tRp58
sVsouthern poverty
p59
g51
(g53
S'\x0f\x00\x00\x00\x00\x00\x00\x00'
tRp60
sg30
g51
(g53
S'\x08\x00\x00\x00\x00\x00\x00\x00'
tRp61
sVdees southern
p62
g51
(g53
S'\x07\x00\x00\x00\x00\x00\x00\x00'
tRp63
sg22
g51
(g53
S'\x03\x00\x00\x00\x00\x00\x00\x00'
tRp64
sVcenter activities
p65
g51
(g53
S'\x05\x00\x00\x00\x00\x00\x00\x00'
tRp66
sV.
g51
(g53
S'\x00\x00\x00\x00\x00\x00\x00\x00'
tRp67
sVactivities morris
p68
g51
(g53
S'\x02\x00\x00\x00\x00\x00\x00\x00'
tRp69
sVlaw center
p70
g51
(g53
S'\t\x00\x00\x00\x00\x00\x00\x00'
tRp71
sg27
g51
(g53
S'\n\x00\x00\x00\x00\x00\x00\x00'
tRp72
sVmorris dees
p73
g51
(g53
S'\x0b\x00\x00\x00\x00\x00\x00\x00'
tRp74
sVcenter .
p75
g51
(g53
S'\x04\x00\x00\x00\x00\x00\x00\x00'
tRp76
ssS'binary'
p77
I00
sS'ngram_range'
p78
(I1
I2
tp79
sS'preprocessor'
p80
NsS'min_df'
p81
I1
sS'max_features'
p82
NsS'input'
p83
S'content'
p84
sS'dtype'
p85
cnumpy
int64
p86
sS'stop_words_'
p87
g18
((ltRp88
sS'strip_accents'
p89
Nsb.