(dp1
S'automatic right'
p2
F0.11074197120708748
sS'foreign currency'
p3
F0.55370985603543743
sS'money impregnable'
p4
F0.11074197120708748
sS'future european currency'
p5
F0.21321961620469082
sS'tough budgetary'
p6
F0.11074197120708748
sS'rbi permitted'
p7
F0.11074197120708748
sS'bulgarian national'
p8
F0.11074197120708748
sS'experimenting striking'
p9
F0.11074197120708748
sS'pass national'
p10
F0.11074197120708748
sS'minuscule'
p11
F0.09852216748768472
sS'chinese'
p12
F0.09852216748768472
sS'eligible'
p13
F0.09852216748768472
sS'segments'
p14
F0.09852216748768472
sS'december leaders'
p15
F0.11074197120708748
sS'muravei'
p16
F0.09852216748768472
sS'france far'
p17
F0.11074197120708748
sS'printed matters destined'
p18
F0.21321961620469082
sS'domestic money supply'
p19
F0.42643923240938164
sS'minister muravei'
p20
F0.11074197120708748
sS'indicators external trade'
p21
F0.21321961620469082
sS'updated'
p22
F0.19704433497536944
sS'risk'
p23
F0.09852216748768472
sS'government plans'
p24
F0.11074197120708748
sS'prominent british economists'
p25
F0.21321961620469082
sS'internet'
p26
F0.19704433497536944
sS'money unit'
p27
F0.11074197120708748
sS'bnr indicative'
p28
F0.11074197120708748
sS'jacob'
p29
F0.09852216748768472
sS'affect'
p30
F0.19704433497536944
sS'exporters'
p31
F0.09852216748768472
sS'companies'
p32
F0.19704433497536944
sS'wednesday'
p33
F0.09852216748768472
sS'survey carried'
p34
F0.11074197120708748
sS'look forward'
p35
F0.11074197120708748
sS'enhance'
p36
F0.09852216748768472
sS'states beginning january'
p37
F0.21321961620469082
sS'force'
p38
F0.09852216748768472
sS'leaders'
p39
F0.19704433497536944
sS'bankers'
p40
F0.09852216748768472
sS'japanese'
p41
F0.09852216748768472
sS'financial institutions'
p42
F0.22148394241417496
sS'second'
p43
F0.19704433497536944
sS'estimated'
p44
F0.09852216748768472
sS'established'
p45
F0.39408866995073888
sS'euro zone domestic'
p46
F0.21321961620469082
sS'money supply'
p47
F0.22148394241417496
sS'european styles'
p48
F0.11074197120708748
sS'currency failure focus'
p49
F0.21321961620469082
sS'spokesman'
p50
F0.39408866995073888
sS'worsening social welfare'
p51
F0.21321961620469082
sS'possible major dollar'
p52
F0.21321961620469082
sS'new'
p53
F1.9704433497536946
sS'officially'
p54
F0.09852216748768472
sS'quoting official sources'
p55
F0.21321961620469082
sS'told'
p56
F0.19704433497536944
sS'euro data'
p57
F0.11074197120708748
sS'euro wo nt'
p58
F0.21321961620469082
sS'pro european'
p59
F0.11074197120708748
sS'include country'
p60
F0.11074197120708748
sS'reported'
p61
F0.39408866995073888
sS'european central bank'
p62
F1.7057569296375266
sS'possibility'
p63
F0.09852216748768472
sS'social development board'
p64
F0.21321961620469082
sS'friday rbi'
p65
F0.11074197120708748
sS'european integration'
p66
F0.11074197120708748
sS'employees'
p67
F0.09852216748768472
sS'economics'
p68
F0.19704433497536944
sS'completely'
p69
F0.19704433497536944
sS'reports'
p70
F0.29556650246305421
sS'credit'
p71
F0.09852216748768472
sS'year day'
p72
F0.22148394241417496
sS'adopting'
p73
F0.09852216748768472
sS'changes'
p74
F0.09852216748768472
sS'reduce costs'
p75
F0.11074197120708748
sS'recent eurobarometer'
p76
F0.11074197120708748
sS'expects britain'
p77
F0.11074197120708748
sS'currency recently named'
p78
F0.21321961620469082
sS'eu wide opinion'
p79
F0.21321961620469082
sS'replace'
p80
F0.29556650246305421
sS'brought'
p81
F0.09852216748768472
sS'opportunities'
p82
F0.19704433497536944
sS'total'
p83
F0.39408866995073888
sS'unit'
p84
F0.49261083743842365
sS'coins'
p85
F1.083743842364532
sS'france italy'
p86
F0.11074197120708748
sS'negative'
p87
F0.09852216748768472
sS'tenders'
p88
F0.09852216748768472
sS'based european'
p89
F0.11074197120708748
sS'proposed dollar'
p90
F0.11074197120708748
sS'issued monday'
p91
F0.11074197120708748
sS'coins denominated'
p92
F0.11074197120708748
sS'successful'
p93
F0.09852216748768472
sS'founding countries'
p94
F0.11074197120708748
sS'berlin'
p95
F0.09852216748768472
sS'hold'
p96
F0.09852216748768472
sS'broad membership according'
p97
F0.21321961620469082
sS'finance minister'
p98
F0.11074197120708748
sS'join'
p99
F0.49261083743842365
sS'european pressure'
p100
F0.11074197120708748
sS'1997'
p101
F0.29556650246305421
sS'rights'
p102
F0.09852216748768472
sS'1999'
p103
F1.5763546798029555
sS'1998'
p104
F0.09852216748768472
sS'work'
p105
F0.19704433497536944
sS'thai exporters'
p106
F0.11074197120708748
sS'transparency'
p107
F0.09852216748768472
sS'central bank'
p108
F1.8826135105204873
sS'newfoundland'
p109
F0.09852216748768472
sS'starting january'
p110
F0.11074197120708748
sS'euro automatically'
p111
F0.11074197120708748
sS'printed matters'
p112
F0.11074197120708748
sS'flung'
p113
F0.09852216748768472
sS'india'
p114
F0.09852216748768472
sS'stressing'
p115
F0.09852216748768472
sS'currency'
p116
F10.935960591133005
sS'juppe today reiterated'
p117
F0.21321961620469082
sS'bulgaria foreign exchange'
p118
F0.21321961620469082
sS'want'
p119
F0.09852216748768472
sS'seven face'
p120
F0.11074197120708748
sS'indifferent'
p121
F0.09852216748768472
sS'reported tuesday'
p122
F0.11074197120708748
sS'news agency'
p123
F0.22148394241417496
sS'guarantee'
p124
F0.09852216748768472
sS'britain biggest mortgage'
p125
F0.21321961620469082
sS'monetary institute'
p126
F0.11074197120708748
sS'country investment'
p127
F0.11074197120708748
sS'provide'
p128
F0.09852216748768472
sS'newspaper today'
p129
F0.11074197120708748
sS'feature'
p130
F0.09852216748768472
sS'chief executive'
p131
F0.11074197120708748
sS'ministry spokesman'
p132
F0.11074197120708748
sS'mid october'
p133
F0.11074197120708748
sS'answer'
p134
F0.09852216748768472
sS'banks financial markets'
p135
F0.21321961620469082
sS'currency fluctuations'
p136
F0.11074197120708748
sS'rules apply'
p137
F0.11074197120708748
sS'agency thursday'
p138
F0.11074197120708748
sS'destined'
p139
F0.09852216748768472
sS'unofficial market'
p140
F0.11074197120708748
sS'president'
p141
F0.09852216748768472
sS'law'
p142
F0.09852216748768472
sS'allow currency users'
p143
F0.21321961620469082
sS'trade making'
p144
F0.11074197120708748
sS'currency alignment'
p145
F0.11074197120708748
sS'main market'
p146
F0.11074197120708748
sS'1995 showed'
p147
F0.11074197120708748
sS'dollar exchange rate'
p148
F0.21321961620469082
sS'buying bonds'
p149
F0.11074197120708748
sS'bingley'
p150
F0.09852216748768472
sS'order'
p151
F0.09852216748768472
sS'abraham mwenda director'
p152
F0.21321961620469082
sS'union eu citizens'
p153
F0.21321961620469082
sS'muravei radev'
p154
F0.11074197120708748
sS'task force'
p155
F0.11074197120708748
sS'welcomed'
p156
F0.09852216748768472
sS'expects'
p157
F0.19704433497536944
sS'eu country seeking'
p158
F0.21321961620469082
sS'great contribution'
p159
F0.11074197120708748
sS'country loss'
p160
F0.11074197120708748
sS'minister muravei radev'
p161
F0.21321961620469082
sS'single currency unit'
p162
F0.42643923240938164
sS'bank governor'
p163
F0.11074197120708748
sS'welcomes'
p164
F0.09852216748768472
sS'position'
p165
F0.29556650246305421
sS'proposed european single'
p166
F0.21321961620469082
sS'50 billion'
p167
F0.11074197120708748
sS'writing'
p168
F0.09852216748768472
sS'month period starting'
p169
F0.21321961620469082
sS'production'
p170
F0.09852216748768472
sS'15 percent'
p171
F0.11074197120708748
sS'currency means'
p172
F0.11074197120708748
sS'currency wo'
p173
F0.11074197120708748
sS'benefit thailand import'
p174
F0.21321961620469082
sS'effects'
p175
F0.09852216748768472
sS'freely convert'
p176
F0.11074197120708748
sS'new money impregnable'
p177
F0.21321961620469082
sS'microstates located'
p178
F0.11074197120708748
sS'bank'
p179
F2.8571428571428572
sS'founder countries stop'
p180
F0.21321961620469082
sS'represents'
p181
F0.09852216748768472
sS'netherlands'
p182
F0.29556650246305421
sS'dollar exchange'
p183
F0.11074197120708748
sS'chief wim'
p184
F0.11074197120708748
sS'european summit confirmed'
p185
F0.21321961620469082
sS'thailand macro economy'
p186
F0.21321961620469082
sS'entitled'
p187
F0.09852216748768472
sS'countries stop'
p188
F0.11074197120708748
sS'mean'
p189
F0.09852216748768472
sS'national currency rr/sof'
p190
F0.21321961620469082
sS'development'
p191
F0.09852216748768472
sS'financial'
p192
F1.1822660098522169
sS'based european central'
p193
F0.21321961620469082
sS'does nt'
p194
F0.11074197120708748
sS'used'
p195
F0.39408866995073888
sS'trading'
p196
F0.29556650246305421
sS'currency code'
p197
F0.11074197120708748
sS'institute requires'
p198
F0.11074197120708748
sS'collector'
p199
F0.09852216748768472
sS'saturday'
p200
F0.19704433497536944
sS'foreign trade'
p201
F0.11074197120708748
sS'crucial'
p202
F0.09852216748768472
sS'means lower'
p203
F0.11074197120708748
sS'planned single currency'
p204
F0.21321961620469082
sS'encourage'
p205
F0.19704433497536944
sS'adapt'
p206
F0.09852216748768472
sS'countries taking'
p207
F0.11074197120708748
sS'wim duisenberg'
p208
F0.22148394241417496
sS'magazine quoted european'
p209
F0.21321961620469082
sS'associate'
p210
F0.09852216748768472
sS'little'
p211
F0.19704433497536944
sS'free'
p212
F0.19704433497536944
sS'spain italy'
p213
F0.11074197120708748
sS'convert legacy'
p214
F0.11074197120708748
sS'isarescu'
p215
F0.19704433497536944
sS'demand juppe noted'
p216
F0.21321961620469082
sS'enormous'
p217
F0.09852216748768472
sS'commissioner told'
p218
F0.11074197120708748
sS'clear cut'
p219
F0.11074197120708748
sS'iso'
p220
F0.09852216748768472
sS'presse afp'
p221
F0.11074197120708748
sS'latest monthly'
p222
F0.11074197120708748
sS'reduced transaction costs'
p223
F0.21321961620469082
sS'building societies'
p224
F0.11074197120708748
sS'make various preparations'
p225
F0.21321961620469082
sS'economists'
p226
F0.39408866995073888
sS': history'
p227
F0.11074197120708748
sS'indicators accessible'
p228
F0.11074197120708748
sS'expanded european union'
p229
F0.21321961620469082
sS'adopted'
p230
F0.29556650246305421
sS'national accounts'
p231
F0.11074197120708748
sS'70 billion euro'
p232
F0.21321961620469082
sS'lister'
p233
F0.09852216748768472
sS'housing market'
p234
F0.11074197120708748
sS'service'
p235
F0.09852216748768472
sS'expanded investment'
p236
F0.11074197120708748
sS'rates'
p237
F0.88669950738916259
sS'sustained economic growth'
p238
F0.21321961620469082
sS'january 1999'
p239
F0.11074197120708748
sS'recent'
p240
F0.39408866995073888
sS'ranging'
p241
F0.09852216748768472
sS'france ireland'
p242
F0.22148394241417496
sS'romanian society'
p243
F0.11074197120708748
sS'frankfurt based body'
p244
F0.21321961620469082
sS'fully accepted'
p245
F0.11074197120708748
sS'recently named'
p246
F0.11074197120708748
sS'euro founder'
p247
F0.11074197120708748
sS'country foreign reserves'
p248
F0.21321961620469082
sS'southern africa'
p249
F0.11074197120708748
sS'bnr foreign currency'
p250
F0.21321961620469082
sS'success cite low'
p251
F0.21321961620469082
sS'miquelon'
p252
F0.19704433497536944
sS'euro banknotes'
p253
F0.22148394241417496
sS'movement revealed'
p254
F0.11074197120708748
sS'reduced currency'
p255
F0.11074197120708748
sS'showed'
p256
F0.19704433497536944
sS'citibank'
p257
F0.09852216748768472
sS'likely'
p258
F0.09852216748768472
sS'nations'
p259
F0.19704433497536944
sS'cash dispensers despite'
p260
F0.21321961620469082
sS'major trading'
p261
F0.11074197120708748
sS'announced thursday'
p262
F0.11074197120708748
sS'national assembly'
p263
F0.11074197120708748
sS'bank national'
p264
F0.11074197120708748
sS'mind'
p265
F0.09852216748768472
sS'wednesday colloquium'
p266
F0.11074197120708748
sS'foreign currency director'
p267
F0.21321961620469082
sS'mint'
p268
F0.09852216748768472
sS'cash dispensers'
p269
F0.11074197120708748
sS'forced'
p270
F0.09852216748768472
sS'leaders make efforts'
p271
F0.21321961620469082
sS'responsible'
p272
F0.29556650246305421
sS'bank announced'
p273
F0.11074197120708748
sS'biggest mortgage lenders'
p274
F0.21321961620469082
sS'foreign currency reserves'
p275
F0.42643923240938164
sS'emu rbi sources'
p276
F0.21321961620469082
sS'worsening'
p277
F0.09852216748768472
sS'cause rising'
p278
F0.11074197120708748
sS'transactions'
p279
F0.19704433497536944
sS'economic demand juppe'
p280
F0.21321961620469082
sS'cause rising unemployment'
p281
F0.21321961620469082
sS'launched ahead'
p282
F0.11074197120708748
sS'germany'
p283
F0.59113300492610843
sS'executive body today'
p284
F0.21321961620469082
sS'coin'
p285
F0.09852216748768472
sS'bradford'
p286
F0.09852216748768472
sS'bulgarian government adopted'
p287
F0.21321961620469082
sS'euro services'
p288
F0.11074197120708748
sS'juppe'
p289
F0.49261083743842365
sS'calculated'
p290
F0.09852216748768472
sS'issuing collector coins'
p291
F0.21321961620469082
sS'help establish'
p292
F0.11074197120708748
sS'treaty'
p293
F0.19704433497536944
sS'banks fear'
p294
F0.11074197120708748
sS'reserve'
p295
F0.49261083743842365
sS'saying'
p296
F0.68965517241379315
sS'pope'
p297
F0.09852216748768472
sS'romanian economic'
p298
F0.11074197120708748
sS'minister guenter rexrodt'
p299
F0.21321961620469082
sS'various european styles'
p300
F0.21321961620469082
sS'adopt new currency'
p301
F0.21321961620469082
sS'bnr director adrian'
p302
F0.21321961620469082
sS'advanced stage'
p303
F0.22148394241417496
sS'currency boundaries vanish'
p304
F0.21321961620469082
sS'quoted'
p305
F0.59113300492610843
sS'reiterated france'
p306
F0.22148394241417496
sS'unemployment'
p307
F0.19704433497536944
sS'judged'
p308
F0.09852216748768472
sS'associate eu country'
p309
F0.21321961620469082
sS'demanded french leaders'
p310
F0.21321961620469082
sS'coins unless'
p311
F0.11074197120708748
sS'resulting'
p312
F0.09852216748768472
sS'exports'
p313
F0.09852216748768472
sS'mugur isarescu'
p314
F0.11074197120708748
sS'eu rules'
p315
F0.11074197120708748
sS'stop'
p316
F0.09852216748768472
sS'coast'
p317
F0.19704433497536944
sS'residents foreign'
p318
F0.11074197120708748
sS'believe european'
p319
F0.11074197120708748
sS'lenders'
p320
F0.09852216748768472
sS'despite'
p321
F0.19704433497536944
sS'report'
p322
F0.29556650246305421
sS'does nt expect'
p323
F0.21321961620469082
sS'societies'
p324
F0.09852216748768472
sS'bank president wim'
p325
F0.21321961620469082
sS'countries'
p326
F1.4778325123152709
sS'exchange operator'
p327
F0.11074197120708748
sS'face value'
p328
F0.11074197120708748
sS'emu'
p329
F0.39408866995073888
sS'employees ask'
p330
F0.11074197120708748
sS'major dollar movements'
p331
F0.21321961620469082
sS'bank bnr'
p332
F0.22148394241417496
sS'automatic'
p333
F0.09852216748768472
sS'officially goes'
p334
F0.11074197120708748
sS'imminent economic'
p335
F0.11074197120708748
sS'decided'
p336
F0.49261083743842365
sS'result'
p337
F0.09852216748768472
sS'national currency leu'
p338
F0.21321961620469082
sS'help reduce inflation'
p339
F0.21321961620469082
sS'away'
p340
F0.09852216748768472
sS'news agency reported'
p341
F0.21321961620469082
sS'hard currency policy'
p342
F0.21321961620469082
sS'eu executive body'
p343
F0.21321961620469082
sS'wo'
p344
F0.29556650246305421
sS'checks using credit'
p345
F0.21321961620469082
sS'investment portfolios'
p346
F0.11074197120708748
sS'international exchange'
p347
F0.11074197120708748
sS'cross border'
p348
F0.11074197120708748
sS'news'
p349
F0.29556650246305421
sS'using euro'
p350
F0.11074197120708748
sS'special arrangements'
p351
F0.11074197120708748
sS'exchange rate'
p352
F0.11074197120708748
sS'psychologists'
p353
F0.09852216748768472
sS'luxembourg ireland creating'
p354
F0.21321961620469082
sS'mayotte'
p355
F0.09852216748768472
sS'country'
p356
F1.1822660098522169
sS'ill'
p357
F0.09852216748768472
sS'demanded'
p358
F0.09852216748768472
sS'matters represent'
p359
F0.11074197120708748
sS'colloquium'
p360
F0.19704433497536944
sS'planned'
p361
F0.19704433497536944
sS'requests'
p362
F0.09852216748768472
sS'reduce inflation'
p363
F0.11074197120708748
sS'asked'
p364
F0.09852216748768472
sS'tone'
p365
F0.09852216748768472
sS'guenter rexrodt'
p366
F0.11074197120708748
sS'fact sooddard'
p367
F0.11074197120708748
sS'european union eu'
p368
F0.63965884861407252
sS'initiative'
p369
F0.09852216748768472
sS'agencies including'
p370
F0.11074197120708748
sS'conference'
p371
F0.19704433497536944
sS'reported agence'
p372
F0.11074197120708748
sS'significant improvement'
p373
F0.11074197120708748
sS'eventual issuance'
p374
F0.11074197120708748
sS'basis'
p375
F0.09852216748768472
sS'union'
p376
F2.2660098522167487
sS'ecb governing council'
p377
F0.21321961620469082
sS'tiny'
p378
F0.29556650246305421
sS'commission'
p379
F0.59113300492610843
sS'stem volatility'
p380
F0.11074197120708748
sS'expected'
p381
F0.39408866995073888
sS'topics'
p382
F0.09852216748768472
sS'governor mugur'
p383
F0.11074197120708748
sS'life'
p384
F0.09852216748768472
sS'eastern'
p385
F0.09852216748768472
sS'german economics minister'
p386
F0.21321961620469082
sS'concerning'
p387
F0.09852216748768472
sS'international currency'
p388
F0.11074197120708748
sS'enterprises'
p389
F0.09852216748768472
sS'moneys'
p390
F0.09852216748768472
sS'test printing'
p391
F0.11074197120708748
sS'face values'
p392
F0.22148394241417496
sS'exchange reserve'
p393
F0.11074197120708748
sS'european council'
p394
F0.22148394241417496
sS'hard currency operators'
p395
F0.21321961620469082
sS'commerce'
p396
F0.19704433497536944
sS'consultative group'
p397
F0.11074197120708748
sS'presidency'
p398
F0.19704433497536944
sS'economies'
p399
F0.09852216748768472
sS'german central bank'
p400
F0.21321961620469082
sS'balance'
p401
F0.19704433497536944
sS'study'
p402
F0.39408866995073888
sS'launched'
p403
F0.59113300492610843
sS'zambia major'
p404
F0.11074197120708748
sS'seven'
p405
F0.29556650246305421
sS'currency unit vasilescu'
p406
F0.21321961620469082
sS'60 percent'
p407
F0.11074197120708748
sS'chief executive geoffrey'
p408
F0.21321961620469082
sS'newspaper reports'
p409
F0.11074197120708748
sS'confirmed'
p410
F0.39408866995073888
sS'rr/sof'
p411
F0.09852216748768472
sS'beginning january'
p412
F0.11074197120708748
sS'bank governor mugur'
p413
F0.21321961620469082
sS'perform'
p414
F0.19704433497536944
sS'country emblems'
p415
F0.11074197120708748
sS'make'
p416
F0.68965517241379315
sS'technical issue'
p417
F0.11074197120708748
sS'indian ocean'
p418
F0.11074197120708748
sS'austria luxembourg'
p419
F0.11074197120708748
sS'european'
p420
F7.5862068965517242
sS'vasilescu'
p421
F0.59113300492610843
sS'passbooks'
p422
F0.09852216748768472
sS'declaring'
p423
F0.09852216748768472
sS'early attribution'
p424
F0.11074197120708748
sS'hand'
p425
F0.19704433497536944
sS'economics minister guenter'
p426
F0.21321961620469082
sS'opportunity'
p427
F0.09852216748768472
sS'named european movement'
p428
F0.21321961620469082
sS'currency accounts'
p429
F0.11074197120708748
sS'shortly'
p430
F0.09852216748768472
sS'permitted banks'
p431
F0.11074197120708748
sS'80 percent people'
p432
F0.21321961620469082
sS'release issued'
p433
F0.11074197120708748
sS'ocean'
p434
F0.09852216748768472
sS'savings'
p435
F0.09852216748768472
sS'country financial integration'
p436
F0.21321961620469082
sS'confirmed sunday'
p437
F0.11074197120708748
sS'monaco'
p438
F0.39408866995073888
sS'proposed'
p439
F0.19704433497536944
sS'yen'
p440
F0.09852216748768472
sS'news agency thursday'
p441
F0.21321961620469082
sS'assigned'
p442
F0.09852216748768472
sS'price stability adding'
p443
F0.21321961620469082
sS'identify'
p444
F0.09852216748768472
sS'thanks'
p445
F0.09852216748768472
sS'adding'
p446
F0.19704433497536944
sS'bnr'
p447
F0.68965517241379315
sS'issuing'
p448
F0.09852216748768472
sS'ireland italy luxembourg'
p449
F0.42643923240938164
sS'board'
p450
F0.59113300492610843
sS'easy'
p451
F0.09852216748768472
sS'countries significantly'
p452
F0.11074197120708748
sS'gave'
p453
F0.09852216748768472
sS'sweden france'
p454
F0.11074197120708748
sS'official currency'
p455
F0.11074197120708748
sS'bank deposits'
p456
F0.11074197120708748
sS'prices industry'
p457
F0.11074197120708748
sS'possible'
p458
F0.09852216748768472
sS'future role'
p459
F0.11074197120708748
sS'possibly'
p460
F0.09852216748768472
sS'indicative'
p461
F0.09852216748768472
sS'rates especially'
p462
F0.11074197120708748
sS'imposed'
p463
F0.09852216748768472
sS'mint euro'
p464
F0.11074197120708748
sS'advanced'
p465
F0.19704433497536944
sS'annual report'
p466
F0.11074197120708748
sS'54'
p467
F0.09852216748768472
sS'50'
p468
F0.09852216748768472
sS'steps'
p469
F0.09852216748768472
sS'euro denominated bank'
p470
F0.21321961620469082
sS'20 percent'
p471
F0.22148394241417496
sS'beneficial'
p472
F0.09852216748768472
sS'right'
p473
F0.19704433497536944
sS'deal'
p474
F0.09852216748768472
sS'people'
p475
F0.39408866995073888
sS'invoice'
p476
F0.09852216748768472
sS'european union market'
p477
F0.21321961620469082
sS'german mark'
p478
F0.33222591362126247
sS'recent eurobarometer opinion'
p479
F0.21321961620469082
sS'bilateral trade'
p480
F0.11074197120708748
sS'denied'
p481
F0.09852216748768472
sS'institute responsible'
p482
F0.11074197120708748
sS'bank announced thursday'
p483
F0.21321961620469082
sS'christmas'
p484
F0.09852216748768472
sS'participation'
p485
F0.09852216748768472
sS'informed speculation'
p486
F0.11074197120708748
sS'predicting'
p487
F0.09852216748768472
sS'negative effects'
p488
F0.11074197120708748
sS'december european council'
p489
F0.21321961620469082
sS'permitted'
p490
F0.19704433497536944
sS'dollars'
p491
F0.09852216748768472
sS'months'
p492
F0.19704433497536944
sS'tactical problems'
p493
F0.11074197120708748
sS'magazine'
p494
F0.19704433497536944
sS'ensure'
p495
F0.19704433497536944
sS'islands'
p496
F0.19704433497536944
sS'efforts'
p497
F0.09852216748768472
sS'largest foreign exchange'
p498
F0.21321961620469082
sS'automatically'
p499
F0.19704433497536944
sS'nt compete'
p500
F0.11074197120708748
sS'1999 reported agence'
p501
F0.21321961620469082
sS'bank president'
p502
F0.11074197120708748
sS'using gold coins'
p503
F0.21321961620469082
sS'1999 bnr director'
p504
F0.21321961620469082
sS'political plan'
p505
F0.22148394241417496
sS'balanced'
p506
F0.09852216748768472
sS'80 percent'
p507
F0.11074197120708748
sS'bank chief wim'
p508
F0.21321961620469082
sS'cooperate closely'
p509
F0.11074197120708748
sS'major trading partners'
p510
F0.21321961620469082
sS'juppe reiterated'
p511
F0.11074197120708748
sS'term qualitative surveys'
p512
F0.21321961620469082
sS'percent people feel'
p513
F0.21321961620469082
sS'legislation'
p514
F0.09852216748768472
sS'prominent british'
p515
F0.11074197120708748
sS'way'
p516
F0.09852216748768472
sS'juppe noted'
p517
F0.11074197120708748
sS'success cite'
p518
F0.11074197120708748
sS'monthly report'
p519
F0.11074197120708748
sS'offer'
p520
F0.19704433497536944
sS'continue using gold'
p521
F0.21321961620469082
sS'german marks'
p522
F0.11074197120708748
sS'failure'
p523
F0.09852216748768472
sS'total foreign'
p524
F0.11074197120708748
sS'sustained'
p525
F0.09852216748768472
sS'euros stamped'
p526
F0.11074197120708748
sS'begin producing'
p527
F0.11074197120708748
sS'help stem volatility'
p528
F0.21321961620469082
sS'reduce thailand'
p529
F0.11074197120708748
sS'low inflation'
p530
F0.11074197120708748
sS'million people dkt'
p531
F0.21321961620469082
sS'vatican'
p532
F0.49261083743842365
sS'european integration help'
p533
F0.21321961620469082
sS'later'
p534
F0.09852216748768472
sS'sticks'
p535
F0.09852216748768472
sS'takes effect'
p536
F0.11074197120708748
sS'abstract'
p537
F0.09852216748768472
sS'currency wo nt'
p538
F0.21321961620469082
sS'economic agents'
p539
F0.11074197120708748
sS'zambian'
p540
F0.09852216748768472
sS'movement stephen'
p541
F0.11074197120708748
sS'proves'
p542
F0.09852216748768472
sS'french leaders'
p543
F0.11074197120708748
sS'eu member'
p544
F0.22148394241417496
sS'accounting'
p545
F0.19704433497536944
sS'exist'
p546
F0.09852216748768472
sS'negotiations'
p547
F0.19704433497536944
sS'europe imminent economic'
p548
F0.21321961620469082
sS'eventual'
p549
F0.09852216748768472
sS'role'
p550
F0.09852216748768472
sS'balanced world financial'
p551
F0.21321961620469082
sS'test'
p552
F0.09852216748768472
sS'nt'
p553
F0.59113300492610843
sS'various european'
p554
F0.11074197120708748
sS'little fact sooddard'
p555
F0.21321961620469082
sS'denied newspaper reports'
p556
F0.21321961620469082
sS'stop circulating'
p557
F0.11074197120708748
sS'billion'
p558
F0.39408866995073888
sS'indicative exchange'
p559
F0.11074197120708748
sS'stop circulating completely'
p560
F0.21321961620469082
sS'coins early'
p561
F0.11074197120708748
sS'daily'
p562
F0.19704433497536944
sS'agency reported'
p563
F0.11074197120708748
sS'agreed unanimously'
p564
F0.11074197120708748
sS'miquelon minuscule'
p565
F0.11074197120708748
sS'economists predicting'
p566
F0.11074197120708748
sS'world largest foreign'
p567
F0.21321961620469082
sS'decision'
p568
F0.29556650246305421
sS'country official'
p569
F0.11074197120708748
sS'focus'
p570
F0.09852216748768472
sS'themes'
p571
F0.09852216748768472
sS'social welfare'
p572
F0.11074197120708748
sS'depend'
p573
F0.09852216748768472
sS'zone'
p574
F0.59113300492610843
sS'body responsible'
p575
F0.11074197120708748
sS'yves thibault'
p576
F0.11074197120708748
sS'charge'
p577
F0.09852216748768472
sS'weakening'
p578
F0.09852216748768472
sS'marks'
p579
F0.09852216748768472
sS'sovereignty'
p580
F0.09852216748768472
sS'indian ocean island'
p581
F0.21321961620469082
sS'eurobarometer opinion'
p582
F0.11074197120708748
sS'broadly'
p583
F0.09852216748768472
sS'market public'
p584
F0.11074197120708748
sS'choice'
p585
F0.09852216748768472
sS'news conference zhu'
p586
F0.21321961620469082
sS'provide member states'
p587
F0.21321961620469082
sS'1995'
p588
F0.09852216748768472
sS'emphasized'
p589
F0.09852216748768472
sS'make efforts'
p590
F0.11074197120708748
sS'level'
p591
F0.09852216748768472
sS'dig'
p592
F0.09852216748768472
sS'boundaries vanish'
p593
F0.11074197120708748
sS'reports today'
p594
F0.11074197120708748
sS'proves stable'
p595
F0.11074197120708748
sS'speculation'
p596
F0.19704433497536944
sS'frankfurt based'
p597
F0.22148394241417496
sS'national currencies'
p598
F0.55370985603543743
sS'european single currency'
p599
F2.1321961620469083
sS'spain france ireland'
p600
F0.42643923240938164
sS'1999 preparations'
p601
F0.11074197120708748
sS'sign'
p602
F0.09852216748768472
sS'cost'
p603
F0.09852216748768472
sS'euro freely'
p604
F0.11074197120708748
sS'christmas 1995 showed'
p605
F0.21321961620469082
sS'uniform'
p606
F0.09852216748768472
sS'current'
p607
F0.09852216748768472
sS'goes'
p608
F0.09852216748768472
sS'international'
p609
F0.49261083743842365
sS'emu currencies'
p610
F0.11074197120708748
sS'pose'
p611
F0.09852216748768472
sS'nation reported'
p612
F0.11074197120708748
sS'french'
p613
F0.39408866995073888
sS'demand juppe'
p614
F0.11074197120708748
sS'expanded european'
p615
F0.11074197120708748
sS'rompres news'
p616
F0.22148394241417496
sS'finance commissioner'
p617
F0.11074197120708748
sS'pro european pressure'
p618
F0.21321961620469082
sS'institute'
p619
F0.29556650246305421
sS'shift'
p620
F0.09852216748768472
sS'example'
p621
F0.09852216748768472
sS'exchange rates'
p622
F0.44296788482834992
sS'accomplished'
p623
F0.09852216748768472
sS'bulgarian government'
p624
F0.22148394241417496
sS'nation reported tuesday'
p625
F0.21321961620469082
sS'checks using'
p626
F0.11074197120708748
sS'transact'
p627
F0.09852216748768472
sS'local banks'
p628
F0.11074197120708748
sS'useful'
p629
F0.09852216748768472
sS'common currency'
p630
F0.11074197120708748
sS'accept euro denominated'
p631
F0.21321961620469082
sS'lending'
p632
F0.19704433497536944
sS'flexibility'
p633
F0.09852216748768472
sS'broad membership'
p634
F0.11074197120708748
sS'market'
p635
F0.88669950738916259
sS'national currency boundaries'
p636
F0.21321961620469082
sS'working'
p637
F0.19704433497536944
sS'prove'
p638
F0.09852216748768472
sS'common market'
p639
F0.11074197120708748
sS'politics french prime'
p640
F0.21321961620469082
sS'euro money unit'
p641
F0.21321961620469082
sS'france'
p642
F1.7733990147783252
sS'territories'
p643
F0.29556650246305421
sS'criteria'
p644
F0.39408866995073888
sS'today'
p645
F0.98522167487684731
sS'present qualms'
p646
F0.11074197120708748
sS'introducing'
p647
F0.09852216748768472
sS'commissioner'
p648
F0.19704433497536944
sS'club'
p649
F0.09852216748768472
sS'acceptable'
p650
F0.19704433497536944
sS'silguy european economy'
p651
F0.21321961620469082
sS'citing sources'
p652
F0.11074197120708748
sS'union single currency'
p653
F0.21321961620469082
sS'http : \\\\\\\\europaeuint/eurostathtml'
p654
F0.21321961620469082
sS'important initiative'
p655
F0.11074197120708748
sS'located wholly'
p656
F0.11074197120708748
sS'austria luxembourg ireland'
p657
F0.21321961620469082
sS'yves'
p658
F0.09852216748768472
sS'duisenberg expects'
p659
F0.11074197120708748
sS'various tiny places'
p660
F0.21321961620469082
sS'quoted senior'
p661
F0.11074197120708748
sS'quoting'
p662
F0.09852216748768472
sS'euro currency'
p663
F0.44296788482834992
sS'traditional home'
p664
F0.11074197120708748
sS'printing'
p665
F0.19704433497536944
sS'values'
p666
F0.19704433497536944
sS'feature bridges'
p667
F0.11074197120708748
sS'making'
p668
F0.29556650246305421
sS'european traders'
p669
F0.11074197120708748
sS'citizens'
p670
F0.19704433497536944
sS'mugur'
p671
F0.09852216748768472
sS'allow currency'
p672
F0.11074197120708748
sS'december'
p673
F0.19704433497536944
sS'currency recently'
p674
F0.11074197120708748
sS'administration board'
p675
F0.11074197120708748
sS'largest capital'
p676
F0.11074197120708748
sS'topic'
p677
F0.09852216748768472
sS'council'
p678
F0.49261083743842365
sS'allowed'
p679
F0.19704433497536944
sS'markets enterprises'
p680
F0.11074197120708748
sS'european union new'
p681
F0.21321961620469082
sS'means'
p682
F0.19704433497536944
sS'1'
F1.7733990147783252
sS'sunday'
p683
F0.19704433497536944
sS'long term der'
p684
F0.21321961620469082
sS'economy'
p685
F0.68965517241379315
sS'single euro currency'
p686
F0.21321961620469082
sS'product'
p687
F0.09852216748768472
sS'carefully fluctuations'
p688
F0.11074197120708748
sS'southern'
p689
F0.09852216748768472
sS'membership'
p690
F0.29556650246305421
sS'start using'
p691
F0.11074197120708748
sS'eu executive'
p692
F0.11074197120708748
sS'representations'
p693
F0.09852216748768472
sS'data'
p694
F0.19704433497536944
sS'monitor carefully fluctuations'
p695
F0.21321961620469082
sS'eurosceptical tone'
p696
F0.11074197120708748
sS'currency 37'
p697
F0.11074197120708748
sS'st'
p698
F0.19704433497536944
sS'inform'
p699
F0.09852216748768472
sS'switch'
p700
F0.09852216748768472
sS'1000 bulgarian lev'
p701
F0.21321961620469082
sS'future european'
p702
F0.11074197120708748
sS'serving'
p703
F0.09852216748768472
sS'pointed'
p704
F0.09852216748768472
sS'mainly'
p705
F0.09852216748768472
sS'years'
p706
F0.19704433497536944
sS'stability'
p707
F0.19704433497536944
sS'statistical'
p708
F0.09852216748768472
sS'artists art historians'
p709
F0.21321961620469082
sS'president wim duisenberg'
p710
F0.21321961620469082
sS'1000 bulgarian'
p711
F0.11074197120708748
sS'bank ecb'
p712
F0.11074197120708748
sS'total foreign trade'
p713
F0.21321961620469082
sS'group'
p714
F0.39408866995073888
sS'monitor'
p715
F0.09852216748768472
sS'internationally'
p716
F0.09852216748768472
sS'today reiterated'
p717
F0.11074197120708748
sS'africa comesa'
p718
F0.11074197120708748
sS'policy'
p719
F0.19704433497536944
sS'mail'
p720
F0.09852216748768472
sS'spokesman today formally'
p721
F0.21321961620469082
sS'main'
p722
F0.09852216748768472
sS'industry labor market'
p723
F0.21321961620469082
sS'french territories'
p724
F0.11074197120708748
sS'non'
p725
F0.19704433497536944
sS'finance'
p726
F0.59113300492610843
sS'sweden france spain'
p727
F0.21321961620469082
sS'nation'
p728
F0.19704433497536944
sS'accommodate'
p729
F0.09852216748768472
sS'term'
p730
F0.19704433497536944
sS'european commission ec'
p731
F0.21321961620469082
sS'new national'
p732
F0.11074197120708748
sS'january'
p733
F1.6748768472906401
sS'bank jacob lushinga'
p734
F0.21321961620469082
sS'advent'
p735
F0.09852216748768472
sS'11 euro'
p736
F0.22148394241417496
sS'total cost'
p737
F0.11074197120708748
sS'indicators external'
p738
F0.11074197120708748
sS'significantly'
p739
F0.09852216748768472
sS'bilateral trade making'
p740
F0.21321961620469082
sS'ec'
p741
F0.19704433497536944
sS'european monetary'
p742
F0.33222591362126247
sS'speculators'
p743
F0.09852216748768472
sS'year'
p744
F0.59113300492610843
sS'eu'
p745
F1.7733990147783252
sS'happen'
p746
F0.19704433497536944
sS'currency stability'
p747
F0.11074197120708748
sS'intended'
p748
F0.09852216748768472
sS'canada'
p749
F0.09852216748768472
sS'11 euro countries'
p750
F0.42643923240938164
sS'union statistics essential'
p751
F0.21321961620469082
sS'cite low'
p752
F0.11074197120708748
sS'magazine reported sunday'
p753
F0.21321961620469082
sS'key element'
p754
F0.11074197120708748
sS'daily exchange'
p755
F0.11074197120708748
sS'mucibabici'
p756
F0.09852216748768472
sS'single currency thursday'
p757
F0.21321961620469082
sS'rational'
p758
F0.09852216748768472
sS'dutch'
p759
F0.09852216748768472
sS'shows'
p760
F0.09852216748768472
sS'capital market'
p761
F0.11074197120708748
sS'million'
p762
F0.09852216748768472
sS'current european single'
p763
F0.21321961620469082
sS'governing'
p764
F0.09852216748768472
sS'remittances'
p765
F0.09852216748768472
sS'price stability'
p766
F0.11074197120708748
sS'marino'
p767
F0.39408866995073888
sS'legal status'
p768
F0.11074197120708748
sS'central bank chief'
p769
F0.21321961620469082
sS'ministry'
p770
F0.39408866995073888
sS'vasilescu added'
p771
F0.11074197120708748
sS'transition'
p772
F0.09852216748768472
sS'british'
p773
F0.09852216748768472
sS'commerce ministry'
p774
F0.11074197120708748
sS'euro proves stable'
p775
F0.21321961620469082
sS'place'
p776
F0.19704433497536944
sS'sustained economic'
p777
F0.11074197120708748
sS'new economic'
p778
F0.11074197120708748
sS'euro organization'
p779
F0.11074197120708748
sS'1000'
p780
F0.19704433497536944
sS'blind'
p781
F0.09852216748768472
sS'romania'
p782
F0.59113300492610843
sS'striking'
p783
F0.09852216748768472
sS'15 nation'
p784
F0.11074197120708748
sS'future relationship'
p785
F0.11074197120708748
sS'americans'
p786
F0.09852216748768472
sS'monetary arrangements'
p787
F0.11074197120708748
sS'central bank began'
p788
F0.21321961620469082
sS'ring'
p789
F0.09852216748768472
sS'open'
p790
F0.09852216748768472
sS'george'
p791
F0.09852216748768472
sS'city'
p792
F0.09852216748768472
sS'surveys'
p793
F0.09852216748768472
sS'bnr foreign'
p794
F0.11074197120708748
sS'reiterated france commitment'
p795
F0.21321961620469082
sS'adrian vasilescu'
p796
F0.11074197120708748
sS'eu country'
p797
F0.11074197120708748
sS'formally denied newspaper'
p798
F0.21321961620469082
sS'realization'
p799
F0.09852216748768472
sS'cite'
p800
F0.09852216748768472
sS'speaking'
p801
F0.09852216748768472
sS'reiterated france determination'
p802
F0.21321961620469082
sS'accounts statistics'
p803
F0.11074197120708748
sS'70 billion coins'
p804
F0.21321961620469082
sS'single currency failure'
p805
F0.21321961620469082
sS'released'
p806
F0.19704433497536944
sS'frankfurt based european'
p807
F0.21321961620469082
sS'wo nt compete'
p808
F0.21321961620469082
sS'thai'
p809
F0.09852216748768472
sS'republic'
p810
F0.19704433497536944
sS'population'
p811
F0.09852216748768472
sS'11'
p812
F0.49261083743842365
sS'wide'
p813
F0.09852216748768472
sS'12'
p814
F0.19704433497536944
sS'15'
p815
F0.39408866995073888
sS'rival'
p816
F0.09852216748768472
sS'face values ranging'
p817
F0.21321961620469082
sS'future'
p818
F0.49261083743842365
sS'eurobarometer'
p819
F0.09852216748768472
sS'cards'
p820
F0.09852216748768472
sS'commission firmly'
p821
F0.11074197120708748
sS'bulgarian lev'
p822
F0.22148394241417496
sS'netherlands belgium'
p823
F0.11074197120708748
sS'san'
p824
F0.39408866995073888
sS'investors'
p825
F0.29556650246305421
sS'way free'
p826
F0.11074197120708748
sS'pro'
p827
F0.09852216748768472
sS'san marino'
p828
F0.44296788482834992
sS'indian banks'
p829
F0.11074197120708748
sS'say'
p830
F0.09852216748768472
sS'zone domestic'
p831
F0.11074197120708748
sS'july 1 1997'
p832
F0.21321961620469082
sS'press reports'
p833
F0.11074197120708748
sS'afp quoting official'
p834
F0.21321961620469082
sS'july 1 1999'
p835
F0.21321961620469082
sS'related information program'
p836
F0.21321961620469082
sS'conversion'
p837
F0.09852216748768472
sS'spiegel quoted duisenberg'
p838
F0.21321961620469082
sS'reduce thailand trading'
p839
F0.21321961620469082
sS'national central'
p840
F0.11074197120708748
sS'quoted romania'
p841
F0.11074197120708748
sS'monetary institute responsible'
p842
F0.21321961620469082
sS'note'
p843
F0.09852216748768472
sS'national central banks'
p844
F0.21321961620469082
sS'currency policies'
p845
F0.11074197120708748
sS'begin'
p846
F0.39408866995073888
sS'15 nation european'
p847
F0.21321961620469082
sS'help stem'
p848
F0.11074197120708748
sS'opposite'
p849
F0.09852216748768472
sS'price'
p850
F0.09852216748768472
sS'national bank announced'
p851
F0.21321961620469082
sS'paid'
p852
F0.09852216748768472
sS'printed'
p853
F0.09852216748768472
sS'market transparency resulting'
p854
F0.21321961620469082
sS'european stocks'
p855
F0.11074197120708748
sS'membership negotiations'
p856
F0.11074197120708748
sS'january 4 1999'
p857
F0.21321961620469082
sS'especially'
p858
F0.09852216748768472
sS'adopt'
p859
F0.39408866995073888
sS'implications'
p860
F0.09852216748768472
sS'union 15'
p861
F0.22148394241417496
sS'help reduce'
p862
F0.22148394241417496
sS'netherlands belgium austria'
p863
F0.21321961620469082
sS'senior'
p864
F0.09852216748768472
sS'abraham'
p865
F0.09852216748768472
sS'union statistics'
p866
F0.11074197120708748
sS'german'
p867
F0.78817733990147776
sS'include euro instead'
p868
F0.21321961620469082
sS'union common currency'
p869
F0.21321961620469082
sS'include special designs'
p870
F0.21321961620469082
sS'ireland italy'
p871
F0.22148394241417496
sS'currency 20'
p872
F0.11074197120708748
sS'provided'
p873
F0.09852216748768472
sS'spiegel magazine reported'
p874
F0.21321961620469082
sS'romanian'
p875
F0.78817733990147776
sS'principality'
p876
F0.09852216748768472
sS'monetary commission'
p877
F0.11074197120708748
sS'miquelon minuscule islands'
p878
F0.21321961620469082
sS'rates low unemployment'
p879
F0.21321961620469082
sS'going'
p880
F0.09852216748768472
sS'presse'
p881
F0.09852216748768472
sS'member nations'
p882
F0.11074197120708748
sS'certain conditions'
p883
F0.11074197120708748
sS'german central'
p884
F0.11074197120708748
sS'existence shows'
p885
F0.11074197120708748
sS'jacob lushinga'
p886
F0.11074197120708748
sS'designated'
p887
F0.09852216748768472
sS'today formally denied'
p888
F0.21321961620469082
sS'bundesbank'
p889
F0.29556650246305421
sS'573 percent'
p890
F0.11074197120708748
sS'major dollar'
p891
F0.11074197120708748
sS'prime'
p892
F0.09852216748768472
sS'annual report released'
p893
F0.21321961620469082
sS'currency comes'
p894
F0.11074197120708748
sS'percent feel'
p895
F0.22148394241417496
sS'cut answer'
p896
F0.11074197120708748
sS'italy luxembourg'
p897
F0.22148394241417496
sS'195583'
p898
F0.09852216748768472
sS'proves stable thailand'
p899
F0.21321961620469082
sS'bulgaria'
p900
F0.19704433497536944
sS'opinion polls'
p901
F0.22148394241417496
sS'12 stars'
p902
F0.11074197120708748
sS'matters destined'
p903
F0.11074197120708748
sS'denominated bank'
p904
F0.11074197120708748
sS'using gold'
p905
F0.11074197120708748
sS'diverse places'
p906
F0.11074197120708748
sS'monthly report issued'
p907
F0.21321961620469082
sS'euro countries'
p908
F0.22148394241417496
sS'stephen woodard'
p909
F0.11074197120708748
sS'opinion polls showed'
p910
F0.21321961620469082
sS'austria portugal'
p911
F0.22148394241417496
sS'mortgage'
p912
F0.29556650246305421
sS'union eu executive'
p913
F0.21321961620469082
sS'present national'
p914
F0.11074197120708748
sS'duisenberg emphasized'
p915
F0.11074197120708748
sS'circulating'
p916
F0.09852216748768472
sS'political plan concerns'
p917
F0.21321961620469082
sS'european citizen'
p918
F0.11074197120708748
sS'boundaries'
p919
F0.09852216748768472
sS'outside'
p920
F0.09852216748768472
sS'bureau'
p921
F0.09852216748768472
sS'european heads'
p922
F0.11074197120708748
sS'import'
p923
F0.09852216748768472
sS'checks'
p924
F0.09852216748768472
sS'arrival'
p925
F0.09852216748768472
sS'key euro indicators'
p926
F0.21321961620469082
sS'august'
p927
F0.09852216748768472
sS'ju'
p928
F0.09852216748768472
sS'frankfurt friday'
p929
F0.11074197120708748
sS'denominated bank deposits'
p930
F0.21321961620469082
sS'come'
p931
F0.09852216748768472
sS'far flung territories'
p932
F0.21321961620469082
sS'social development'
p933
F0.11074197120708748
sS'dkt'
p934
F0.09852216748768472
sS'according'
p935
F0.29556650246305421
sS'called'
p936
F0.09852216748768472
sS'central bank bnr'
p937
F0.42643923240938164
sS'statistics essential'
p938
F0.11074197120708748
sS'currency risks'
p939
F0.11074197120708748
sS'comes'
p940
F0.29556650246305421
sS'historians'
p941
F0.09852216748768472
sS': \\\\\\\\europaeuint/eurostathtml'
p942
F0.11074197120708748
sS'period'
p943
F0.09852216748768472
sS'60'
p944
F0.09852216748768472
sS'1 1999'
p945
F1.2181616832779625
sS'accounting unit'
p946
F0.11074197120708748
sS'mortgage lender'
p947
F0.11074197120708748
sS'monetary flexibility'
p948
F0.11074197120708748
sS'1 1997'
p949
F0.11074197120708748
sS'considering'
p950
F0.09852216748768472
sS'preparatory work'
p951
F0.11074197120708748
sS'informed'
p952
F0.59113300492610843
sS'mark'
p953
F0.59113300492610843
sS'combined'
p954
F0.09852216748768472
sS'external trade'
p955
F0.11074197120708748
sS'500'
p956
F0.09852216748768472
sS'offered'
p957
F0.19704433497536944
sS'finland belgium'
p958
F0.11074197120708748
sS'single european'
p959
F1.2181616832779625
sS'commission ec spokesman'
p960
F0.21321961620469082
sS'external'
p961
F0.09852216748768472
sS'agence france'
p962
F0.11074197120708748
sS'currency 37 percent'
p963
F0.21321961620469082
sS'france spain'
p964
F0.11074197120708748
sS'internationally agreed representations'
p965
F0.21321961620469082
sS'currency rr/sof'
p966
F0.11074197120708748
sS'polls'
p967
F0.19704433497536944
sS'cash'
p968
F0.09852216748768472
sS'statistical bureau'
p969
F0.11074197120708748
sS'international trade'
p970
F0.11074197120708748
sS'policies'
p971
F0.09852216748768472
sS'newspaper'
p972
F0.19704433497536944
sS'situation'
p973
F0.09852216748768472
sS'romanian businessmen'
p974
F0.11074197120708748
sS'germany spain france'
p975
F0.42643923240938164
sS'development board'
p976
F0.11074197120708748
sS'failure focus'
p977
F0.11074197120708748
sS'eu finance ministers'
p978
F0.21321961620469082
sS'associate eu'
p979
F0.11074197120708748
sS'provide member'
p980
F0.11074197120708748
sS'labor market public'
p981
F0.21321961620469082
sS'long term'
p982
F0.11074197120708748
sS'worry'
p983
F0.09852216748768472
sS'movements'
p984
F0.09852216748768472
sS'france mediterranean coast'
p985
F0.21321961620469082
sS'juppe demanded french'
p986
F0.21321961620469082
sS'media'
p987
F0.19704433497536944
sS'preparatory'
p988
F0.19704433497536944
sS'daily exchange rates'
p989
F0.21321961620469082
sS'euro money'
p990
F0.11074197120708748
sS'bangzao'
p991
F0.09852216748768472
sS'speech'
p992
F0.09852216748768472
sS'new national currency'
p993
F0.21321961620469082
sS'new currency easily'
p994
F0.21321961620469082
sS'state institutions'
p995
F0.11074197120708748
sS'status'
p996
F0.09852216748768472
sS'oil'
p997
F0.09852216748768472
sS'poor sighted'
p998
F0.11074197120708748
sS'currency failure'
p999
F0.11074197120708748
sS'recent eu'
p1000
F0.11074197120708748
sS'codes'
p1001
F0.09852216748768472
sS'strongest economies'
p1002
F0.11074197120708748
sS'15 members soldered'
p1003
F0.21321961620469082
sS'tiny principality'
p1004
F0.11074197120708748
sS'financial integration'
p1005
F0.11074197120708748
sS'macro'
p1006
F0.09852216748768472
sS'rising competitions'
p1007
F0.11074197120708748
sS'mortgages'
p1008
F0.29556650246305421
sS'costs'
p1009
F0.29556650246305421
sS'easing'
p1010
F0.09852216748768472
sS'commercial banks'
p1011
F0.22148394241417496
sS'believe euro mortgages'
p1012
F0.21321961620469082
sS'country foreign'
p1013
F0.11074197120708748
sS'national legislation putting'
p1014
F0.21321961620469082
sS'money'
p1015
F0.59113300492610843
sS'named euro'
p1016
F0.11074197120708748
sS'unofficial'
p1017
F0.09852216748768472
sS'quoted european'
p1018
F0.11074197120708748
sS'proposed european'
p1019
F0.11074197120708748
sS'rising unemployment'
p1020
F0.11074197120708748
sS'uk participation'
p1021
F0.11074197120708748
sS'press release issued'
p1022
F0.21321961620469082
sS'speed'
p1023
F0.09852216748768472
sS'announcement'
p1024
F0.09852216748768472
sS'counterfeit proof'
p1025
F0.11074197120708748
sS'\\\\\\\\europaeuint/eurostathtml'
p1026
F0.09852216748768472
sS'euros'
p1027
F0.49261083743842365
sS'payments balance'
p1028
F0.11074197120708748
sS'thailand international trade'
p1029
F0.21321961620469082
sS'improvement'
p1030
F0.09852216748768472
sS'lender'
p1031
F0.09852216748768472
sS'instrument'
p1032
F0.09852216748768472
sS'4'
F0.09852216748768472
sS'continue using'
p1033
F0.11074197120708748
sS'struck'
p1034
F0.09852216748768472
sS'border investment'
p1035
F0.11074197120708748
sS'firmly sticks'
p1036
F0.11074197120708748
sS'styles'
p1037
F0.09852216748768472
sS'formally launched'
p1038
F0.11074197120708748
sS'rules'
p1039
F0.19704433497536944
sS'polls showed'
p1040
F0.11074197120708748
sS'early'
p1041
F0.29556650246305421
sS'inflation'
p1042
F0.29556650246305421
sS'iso 4217'
p1043
F0.11074197120708748
sS'world'
p1044
F0.59113300492610843
sS'accepted'
p1045
F0.09852216748768472
sS'bank national central'
p1046
F0.21321961620469082
sS'ruled'
p1047
F0.09852216748768472
sS'world economy'
p1048
F0.11074197120708748
sS'identifying'
p1049
F0.09852216748768472
sS'informed 79 percent'
p1050
F0.21321961620469082
sS'onward internet access'
p1051
F0.21321961620469082
sS'italian lira'
p1052
F0.11074197120708748
sS'benefit'
p1053
F0.39408866995073888
sS'financial mail'
p1054
F0.11074197120708748
sS'jan 12'
p1055
F0.11074197120708748
sS'reduced'
p1056
F0.19704433497536944
sS'financial markets'
p1057
F0.33222591362126247
sS'luxembourg ireland'
p1058
F0.11074197120708748
sS'madrid'
p1059
F0.19704433497536944
sS'benefit thailand'
p1060
F0.11074197120708748
sS'report issued monday'
p1061
F0.21321961620469082
sS'perform euro'
p1062
F0.11074197120708748
sS'euro coins'
p1063
F0.11074197120708748
sS'questionnaire'
p1064
F0.09852216748768472
sS'gross'
p1065
F0.09852216748768472
sS'300 million people'
p1066
F0.21321961620469082
sS'confirm'
p1067
F0.09852216748768472
sS'include special'
p1068
F0.11074197120708748
sS'luxembourg'
p1069
F0.29556650246305421
sS'eurobarometer opinion polls'
p1070
F0.21321961620469082
sS'deficit'
p1071
F0.09852216748768472
sS'today reiterated france'
p1072
F0.21321961620469082
sS'reported agence france'
p1073
F0.21321961620469082
sS'assembly'
p1074
F0.09852216748768472
sS'equivalent'
p1075
F0.19704433497536944
sS'news conference'
p1076
F0.11074197120708748
sS'prove useful'
p1077
F0.11074197120708748
sS'world financial'
p1078
F0.11074197120708748
sS'thailand'
p1079
F0.78817733990147776
sS'central'
p1080
F1.7733990147783252
sS'island'
p1081
F0.09852216748768472
sS'industry'
p1082
F0.09852216748768472
sS'70 billion'
p1083
F0.22148394241417496
sS'leaders make'
p1084
F0.11074197120708748
sS'uniform internationally'
p1085
F0.11074197120708748
sS'act'
p1086
F0.09852216748768472
sS'economics minister'
p1087
F0.11074197120708748
sS'minister guenter'
p1088
F0.11074197120708748
sS'related information'
p1089
F0.11074197120708748
sS'body today'
p1090
F0.11074197120708748
sS'united states'
p1091
F0.11074197120708748
sS'rising'
p1092
F0.19704433497536944
sS'heated'
p1093
F0.09852216748768472
sS'membership according'
p1094
F0.11074197120708748
sS'residents foreign currency'
p1095
F0.21321961620469082
sS'ec spokesman'
p1096
F0.11074197120708748
sS'prepare'
p1097
F0.09852216748768472
sS'area'
p1098
F0.09852216748768472
sS'adopt eu'
p1099
F0.11074197120708748
sS'start'
p1100
F0.29556650246305421
sS'low'
p1101
F0.29556650246305421
sS'stars'
p1102
F0.09852216748768472
sS'reserve currency duisenberg'
p1103
F0.21321961620469082
sS'eu juppe reiterated'
p1104
F0.21321961620469082
sS'stable thailand'
p1105
F0.11074197120708748
sS'dollar movements'
p1106
F0.11074197120708748
sS'ecb announced'
p1107
F0.11074197120708748
sS'regard'
p1108
F0.29556650246305421
sS'alain'
p1109
F0.09852216748768472
sS'1 1999 bnr'
p1110
F0.21321961620469082
sS'romanian total'
p1111
F0.11074197120708748
sS'buying'
p1112
F0.09852216748768472
sS'october'
p1113
F0.09852216748768472
sS'new year'
p1114
F0.22148394241417496
sS'circulation'
p1115
F0.39408866995073888
sS'euro club'
p1116
F0.11074197120708748
sS'euro effect'
p1117
F0.11074197120708748
sS'friday rbi permitted'
p1118
F0.21321961620469082
sS'make various'
p1119
F0.11074197120708748
sS'labor market'
p1120
F0.11074197120708748
sS'clear cut answer'
p1121
F0.21321961620469082
sS'agree'
p1122
F0.09852216748768472
sS'abraham mwenda'
p1123
F0.11074197120708748
sS'rompres'
p1124
F0.19704433497536944
sS'detailed'
p1125
F0.09852216748768472
sS'internet access'
p1126
F0.11074197120708748
sS'certain'
p1127
F0.19704433497536944
sS'general'
p1128
F0.09852216748768472
sS'examine'
p1129
F0.09852216748768472
sS'economic growth'
p1130
F0.11074197120708748
sS'politics'
p1131
F0.19704433497536944
sS'easily adapt'
p1132
F0.11074197120708748
sS'data provided'
p1133
F0.11074197120708748
sS'reported sunday'
p1134
F0.11074197120708748
sS'agency thursday quoted'
p1135
F0.21321961620469082
sS'reduced transaction'
p1136
F0.11074197120708748
sS'single currency'
p1137
F5.0941306755260243
sS'summit'
p1138
F0.49261083743842365
sS'based body'
p1139
F0.11074197120708748
sS'poor'
p1140
F0.09852216748768472
sS'allow progress'
p1141
F0.11074197120708748
sS'foreign ministry'
p1142
F0.22148394241417496
sS'zhu bangzao'
p1143
F0.11074197120708748
sS'symbol'
p1144
F0.09852216748768472
sS'member countries'
p1145
F0.11074197120708748
sS'union 15 countries'
p1146
F0.21321961620469082
sS'important'
p1147
F0.19704433497536944
sS'stocks'
p1148
F0.19704433497536944
sS'pool'
p1149
F0.09852216748768472
sS'legal'
p1150
F0.29556650246305421
sS'building'
p1151
F0.09852216748768472
sS'prime minister alain'
p1152
F0.21321961620469082
sS'bilateral'
p1153
F0.09852216748768472
sS'finance ministry'
p1154
F0.11074197120708748
sS'scudi'
p1155
F0.09852216748768472
sS'mass'
p1156
F0.19704433497536944
sS'euro proves'
p1157
F0.11074197120708748
sS'starting'
p1158
F0.19704433497536944
sS'original'
p1159
F0.09852216748768472
sS'minister'
p1160
F0.29556650246305421
sS'represent'
p1161
F0.09852216748768472
sS'precondition'
p1162
F0.09852216748768472
sS'bulgarian finance'
p1163
F0.11074197120708748
sS'founder'
p1164
F0.19704433497536944
sS'dollar'
p1165
F0.98522167487684731
sS'month'
p1166
F0.09852216748768472
sS'earners'
p1167
F0.09852216748768472
sS'welfare'
p1168
F0.09852216748768472
sS'settlement'
p1169
F0.09852216748768472
sS'decisions'
p1170
F0.09852216748768472
sS'art historians'
p1171
F0.11074197120708748
sS'pledged'
p1172
F0.09852216748768472
sS'thursday'
p1173
F0.49261083743842365
sS'program'
p1174
F0.09852216748768472
sS'spain'
p1175
F0.39408866995073888
sS'open accounts'
p1176
F0.11074197120708748
sS'chinese government welcomes'
p1177
F0.21321961620469082
sS'conditions imposed'
p1178
F0.11074197120708748
sS'foreign reserves'
p1179
F0.33222591362126247
sS'attribution'
p1180
F0.09852216748768472
sS'bank jacob'
p1181
F0.11074197120708748
sS'participants present national'
p1182
F0.21321961620469082
sS'far'
p1183
F0.09852216748768472
sS'arouse strong'
p1184
F0.11074197120708748
sS'home loan'
p1185
F0.11074197120708748
sS'europe new single'
p1186
F0.42643923240938164
sS'fall'
p1187
F0.09852216748768472
sS'union emu rbi'
p1188
F0.21321961620469082
sS'european central'
p1189
F0.88593576965669985
sS'billion euro'
p1190
F0.22148394241417496
sS'invite tenders'
p1191
F0.11074197120708748
sS'economically'
p1192
F0.09852216748768472
sS'french prime'
p1193
F0.11074197120708748
sS'france spain italy'
p1194
F0.21321961620469082
sS'france presse'
p1195
F0.11074197120708748
sS'streets'
p1196
F0.09852216748768472
sS'continue issuing'
p1197
F0.11074197120708748
sS'rate'
p1198
F0.19704433497536944
sS'government increasingly eurosceptical'
p1199
F0.21321961620469082
sS'design'
p1200
F0.19704433497536944
sS'pass'
p1201
F0.09852216748768472
sS'investment'
p1202
F0.59113300492610843
sS'new currency :'
p1203
F0.21321961620469082
sS'opted'
p1204
F0.09852216748768472
sS'abn'
p1205
F0.09852216748768472
sS'low unemployment'
p1206
F0.11074197120708748
sS'monetary union'
p1207
F0.77519379844961245
sS'public'
p1208
F0.19704433497536944
sS'movement'
p1209
F0.29556650246305421
sS'second main'
p1210
F0.11074197120708748
sS'politics french'
p1211
F0.11074197120708748
sS'euro related'
p1212
F0.11074197120708748
sS'answers'
p1213
F0.09852216748768472
sS'operating'
p1214
F0.09852216748768472
sS'eu questionnaire'
p1215
F0.11074197120708748
sS'bank bundesbank'
p1216
F0.11074197120708748
sS'excess'
p1217
F0.09852216748768472
sS'strong'
p1218
F0.19704433497536944
sS'savings accounts passbooks'
p1219
F0.21321961620469082
sS'balance isarescu'
p1220
F0.11074197120708748
sS'pose strategical'
p1221
F0.11074197120708748
sS'britain remains outside'
p1222
F0.21321961620469082
sS'ahead'
p1223
F0.29556650246305421
sS'compliance'
p1224
F0.09852216748768472
sS'country commercial banks'
p1225
F0.21321961620469082
sS'experience'
p1226
F0.09852216748768472
sS'lending giants'
p1227
F0.11074197120708748
sS'important commercial partner'
p1228
F0.21321961620469082
sS'social'
p1229
F0.19704433497536944
sS'skepticism'
p1230
F0.09852216748768472
sS'possible major'
p1231
F0.11074197120708748
sS'adopt new'
p1232
F0.11074197120708748
sS'founder countries'
p1233
F0.22148394241417496
sS'africa'
p1234
F0.09852216748768472
sS'backed'
p1235
F0.29556650246305421
sS'establish'
p1236
F0.09852216748768472
sS'takes'
p1237
F0.09852216748768472
sS'european movement revealed'
p1238
F0.21321961620469082
sS'denominated'
p1239
F0.29556650246305421
sS'largest capital market'
p1240
F0.21321961620469082
sS'financial markets enterprises'
p1241
F0.21321961620469082
sS'payments prices industry'
p1242
F0.21321961620469082
sS'new economic zone'
p1243
F0.21321961620469082
sS'taken'
p1244
F0.09852216748768472
sS'markets'
p1245
F0.29556650246305421
sS'bulgarian'
p1246
F0.59113300492610843
sS'short term'
p1247
F0.11074197120708748
sS'operators'
p1248
F0.09852216748768472
sS'wide opinion'
p1249
F0.11074197120708748
sS'actual realization'
p1250
F0.11074197120708748
sS'rompres news agency'
p1251
F0.42643923240938164
sS'particular'
p1252
F0.09852216748768472
sS'known'
p1253
F0.19704433497536944
sS'producing'
p1254
F0.09852216748768472
sS'suffered'
p1255
F0.09852216748768472
sS'amro'
p1256
F0.09852216748768472
sS'debates'
p1257
F0.09852216748768472
sS'france far flung'
p1258
F0.21321961620469082
sS'der'
p1259
F0.09852216748768472
sS'arouse strong opposition'
p1260
F0.21321961620469082
sS'qualitative surveys'
p1261
F0.11074197120708748
sS'external trade balance'
p1262
F0.21321961620469082
sS'daily basis'
p1263
F0.11074197120708748
sS'scriptural transactions'
p1264
F0.11074197120708748
sS'history'
p1265
F0.09852216748768472
sS'currency 20 percent'
p1266
F0.21321961620469082
sS'single currency debate'
p1267
F0.21321961620469082
sS'share'
p1268
F0.09852216748768472
sS'accept'
p1269
F0.09852216748768472
sS'autumn'
p1270
F0.09852216748768472
sS'confirmed candidates'
p1271
F0.11074197120708748
sS'sense'
p1272
F0.09852216748768472
sS'firmly'
p1273
F0.09852216748768472
sS'feature bridges windows'
p1274
F0.21321961620469082
sS'information'
p1275
F0.39408866995073888
sS'thailand international'
p1276
F0.11074197120708748
sS'imminent'
p1277
F0.09852216748768472
sS'germany france italy'
p1278
F0.21321961620469082
sS'industry labor'
p1279
F0.11074197120708748
sS'international exchange rates'
p1280
F0.21321961620469082
sS'euro coins early'
p1281
F0.21321961620469082
sS'plans'
p1282
F0.49261083743842365
sS'effect'
p1283
F0.39408866995073888
sS'heated competitions'
p1284
F0.11074197120708748
sS'situation duisenberg'
p1285
F0.11074197120708748
sS'legal tender'
p1286
F0.22148394241417496
sS'president wim'
p1287
F0.11074197120708748
sS'predicting countries'
p1288
F0.11074197120708748
sS'response'
p1289
F0.09852216748768472
sS'economic zone'
p1290
F0.22148394241417496
sS'second largest capital'
p1291
F0.21321961620469082
sS'short'
p1292
F0.09852216748768472
sS'export earners'
p1293
F0.11074197120708748
sS'european currencies'
p1294
F0.22148394241417496
sS'accounts passbooks'
p1295
F0.11074197120708748
sS'banks'
p1296
F0.98522167487684731
sS'local newspaper'
p1297
F0.11074197120708748
sS'facilitate trade'
p1298
F0.11074197120708748
sS'tradings'
p1299
F0.09852216748768472
sS'accommodate blind'
p1300
F0.11074197120708748
sS'help'
p1301
F0.59113300492610843
sS'italy greece'
p1302
F0.11074197120708748
sS'increasingly eurosceptical tone'
p1303
F0.21321961620469082
sS'soon'
p1304
F0.09852216748768472
sS'trade'
p1305
F0.88669950738916259
sS'50 billion euro'
p1306
F0.21321961620469082
sS'european commission'
p1307
F0.33222591362126247
sS'existence'
p1308
F0.09852216748768472
sS'silguy'
p1309
F0.09852216748768472
sS'european union common'
p1310
F0.21321961620469082
sS'central banks financial'
p1311
F0.21321961620469082
sS'20'
p1312
F0.19704433497536944
sS'microstates'
p1313
F0.09852216748768472
sS'zambia major trading'
p1314
F0.21321961620469082
sS'union single'
p1315
F0.11074197120708748
sS'rotating presidency'
p1316
F0.11074197120708748
sS'stephen'
p1317
F0.09852216748768472
sS'lira'
p1318
F0.09852216748768472
sS'onward internet'
p1319
F0.11074197120708748
sS'good'
p1320
F0.09852216748768472
sS'help economic agents'
p1321
F0.21321961620469082
sS'seeking'
p1322
F0.09852216748768472
sS'largest'
p1323
F0.19704433497536944
sS'produced blueprints'
p1324
F0.11074197120708748
sS'join hands'
p1325
F0.11074197120708748
sS'people dkt'
p1326
F0.11074197120708748
sS'european currency'
p1327
F1.4396456256921373
sS'easily'
p1328
F0.19704433497536944
sS'likeness'
p1329
F0.09852216748768472
sS'fully'
p1330
F0.09852216748768472
sS'term der spiegel'
p1331
F0.21321961620469082
sS'4 1999'
p1332
F0.11074197120708748
sS'lev equivalent'
p1333
F0.11074197120708748
sS'begin membership'
p1334
F0.11074197120708748
sS'zambia second main'
p1335
F0.21321961620469082
sS'important commercial'
p1336
F0.11074197120708748
sS'sterling'
p1337
F0.09852216748768472
sS'hard'
p1338
F0.19704433497536944
sS'reduce'
p1339
F0.39408866995073888
sS'idea'
p1340
F0.09852216748768472
sS'thailand import'
p1341
F0.11074197120708748
sS'technical preparations'
p1342
F0.11074197120708748
sS'expect'
p1343
F0.09852216748768472
sS'sooddard called'
p1344
F0.11074197120708748
sS'grant legal status'
p1345
F0.21321961620469082
sS'conference zhu'
p1346
F0.11074197120708748
sS'surrounded'
p1347
F0.09852216748768472
sS'informed way free'
p1348
F0.21321961620469082
sS'scheduled day'
p1349
F0.11074197120708748
sS'participants'
p1350
F0.09852216748768472
sS'dominated'
p1351
F0.09852216748768472
sS'euro rexrodt'
p1352
F0.11074197120708748
sS'print'
p1353
F0.09852216748768472
sS'economic demand'
p1354
F0.11074197120708748
sS'issue'
p1355
F0.39408866995073888
sS'second main market'
p1356
F0.21321961620469082
sS'recently named euro'
p1357
F0.21321961620469082
sS'euro savings'
p1358
F0.11074197120708748
sS'ill informed speculation'
p1359
F0.21321961620469082
sS'reduce costs according'
p1360
F0.21321961620469082
sS'friday'
p1361
F0.29556650246305421
sS'commercial partner'
p1362
F0.11074197120708748
sS'belgium germany'
p1363
F0.22148394241417496
sS'experimenting'
p1364
F0.09852216748768472
sS'members'
p1365
F0.39408866995073888
sS'ask'
p1366
F0.09852216748768472
sS'stimulate european'
p1367
F0.11074197120708748
sS'beginning'
p1368
F0.19704433497536944
sS'official sources'
p1369
F0.11074197120708748
sS'director'
p1370
F0.39408866995073888
sS'benefits'
p1371
F0.09852216748768472
sS'france commitment'
p1372
F0.11074197120708748
sS'launch'
p1373
F0.68965517241379315
sS'finland'
p1374
F0.29556650246305421
sS'currency director george'
p1375
F0.21321961620469082
sS'conducted'
p1376
F0.09852216748768472
sS'prejudice'
p1377
F0.09852216748768472
sS'businessmen'
p1378
F0.09852216748768472
sS'guarantee currency stability'
p1379
F0.21321961620469082
sS'major'
p1380
F0.19704433497536944
sS'january 4'
p1381
F0.11074197120708748
sS'january 1'
p1382
F1.5503875968992249
sS'feel'
p1383
F0.29556650246305421
sS'strong sign'
p1384
F0.11074197120708748
sS'number'
p1385
F0.19704433497536944
sS'europe imminent'
p1386
F0.11074197120708748
sS'traditional home loan'
p1387
F0.21321961620469082
sS'executive body'
p1388
F0.11074197120708748
sS'participants present'
p1389
F0.11074197120708748
sS'union new'
p1390
F0.11074197120708748
sS'heads'
p1391
F0.19704433497536944
sS'introduction'
p1392
F0.68965517241379315
sS'international reserves'
p1393
F0.11074197120708748
sS'zambia second'
p1394
F0.11074197120708748
sS'relationship'
p1395
F0.09852216748768472
sS'interviewed'
p1396
F0.09852216748768472
sS'polls conducted'
p1397
F0.11074197120708748
sS'press release'
p1398
F0.11074197120708748
sS'citizens interviewed'
p1399
F0.11074197120708748
sS'believe'
p1400
F0.29556650246305421
sS'opportunities reduced'
p1401
F0.11074197120708748
sS'unit vasilescu'
p1402
F0.11074197120708748
sS'financing'
p1403
F0.09852216748768472
sS'payments prices'
p1404
F0.11074197120708748
sS'government adopted'
p1405
F0.11074197120708748
sS'fear little'
p1406
F0.11074197120708748
sS'thailand macro'
p1407
F0.11074197120708748
sS'states'
p1408
F0.59113300492610843
sS'biggest mortgage'
p1409
F0.22148394241417496
sS'risks'
p1410
F0.09852216748768472
sS'quoted senior economist'
p1411
F0.21321961620469082
sS'spiegel magazine'
p1412
F0.11074197120708748
sS'france mediterranean'
p1413
F0.11074197120708748
sS'exert'
p1414
F0.09852216748768472
sS'imports'
p1415
F0.09852216748768472
sS'substantial'
p1416
F0.09852216748768472
sS'euro dollar'
p1417
F0.11074197120708748
sS'permitted indian'
p1418
F0.11074197120708748
sS'july 1'
p1419
F0.33222591362126247
sS'rbi permitted banks'
p1420
F0.21321961620469082
sS'union common'
p1421
F0.11074197120708748
sS'thursday quoted'
p1422
F0.11074197120708748
sS'freely convert legacy'
p1423
F0.21321961620469082
sS'convert legacy emu'
p1424
F0.21321961620469082
sS'majority'
p1425
F0.19704433497536944
sS'currency plan'
p1426
F0.11074197120708748
sS'writing checks using'
p1427
F0.21321961620469082
sS'sighted people'
p1428
F0.11074197120708748
sS'country seeking'
p1429
F0.11074197120708748
sS'play'
p1430
F0.09852216748768472
sS'added'
p1431
F0.39408866995073888
sS'quote'
p1432
F0.19704433497536944
sS'measures'
p1433
F0.09852216748768472
sS'reach'
p1434
F0.09852216748768472
sS'plan'
p1435
F0.39408866995073888
sS'significant'
p1436
F0.09852216748768472
sS'70'
p1437
F0.19704433497536944
sS'services'
p1438
F0.19704433497536944
sS'vatican city'
p1439
F0.11074197120708748
sS'uk forced'
p1440
F0.11074197120708748
sS'approved'
p1441
F0.09852216748768472
sS'79'
p1442
F0.09852216748768472
sS'special task force'
p1443
F0.21321961620469082
sS'single euro'
p1444
F0.11074197120708748
sS'oil imports'
p1445
F0.11074197120708748
sS'seize'
p1446
F0.09852216748768472
sS'windows'
p1447
F0.09852216748768472
sS'clear'
p1448
F0.09852216748768472
sS'sooddard'
p1449
F0.09852216748768472
sS'traditional'
p1450
F0.19704433497536944
sS'romanian commercial'
p1451
F0.22148394241417496
sS'eu juppe'
p1452
F0.11074197120708748
sS'institutions'
p1453
F0.29556650246305421
sS'directorate'
p1454
F0.09852216748768472
sS'gold'
p1455
F0.09852216748768472
sS'nation european'
p1456
F0.11074197120708748
sS'20 percent feel'
p1457
F0.21321961620469082
sS'romania central'
p1458
F0.44296788482834992
sS'79 percent'
p1459
F0.11074197120708748
sS'seeking admission'
p1460
F0.11074197120708748
sS'mortgage lenders'
p1461
F0.11074197120708748
sS'bank official'
p1462
F0.11074197120708748
sS'ocean island'
p1463
F0.11074197120708748
sS'carefully'
p1464
F0.09852216748768472
sS'http :'
p1465
F0.11074197120708748
sS'impact'
p1466
F0.39408866995073888
sS'country seeking admission'
p1467
F0.21321961620469082
sS'local newspaper today'
p1468
F0.21321961620469082
sS'foreign exchange'
p1469
F0.33222591362126247
sS'merger'
p1470
F0.19704433497536944
sS'remains outside'
p1471
F0.11074197120708748
sS'union emu'
p1472
F0.22148394241417496
sS'british economists'
p1473
F0.11074197120708748
sS'using credit'
p1474
F0.11074197120708748
sS'rational debates'
p1475
F0.11074197120708748
sS'tiny countries'
p1476
F0.11074197120708748
sS'giants'
p1477
F0.09852216748768472
sS'founding'
p1478
F0.19704433497536944
sS'zambia'
p1479
F0.59113300492610843
sS'economic management'
p1480
F0.11074197120708748
sS'impregnable'
p1481
F0.09852216748768472
sS'ministers ruled'
p1482
F0.11074197120708748
sS'euro founder countries'
p1483
F0.21321961620469082
sS'domestic economic'
p1484
F0.11074197120708748
sS'closely'
p1485
F0.09852216748768472
sS'eurostat'
p1486
F0.19704433497536944
sS'french leaders make'
p1487
F0.21321961620469082
sS'india rbi'
p1488
F0.11074197120708748
sS'european monetary union'
p1489
F0.42643923240938164
sS'period starting january'
p1490
F0.21321961620469082
sS'banking'
p1491
F0.19704433497536944
sS'9 percent'
p1492
F0.22148394241417496
sS'common'
p1493
F0.19704433497536944
sS'hype'
p1494
F0.09852216748768472
sS'cease'
p1495
F0.09852216748768472
sS'magazine reported'
p1496
F0.11074197120708748
sS'saturday summit'
p1497
F0.11074197120708748
sS'set'
p1498
F0.78817733990147776
sS'art'
p1499
F0.09852216748768472
sS'gross domestic'
p1500
F0.11074197120708748
sS'arouse'
p1501
F0.09852216748768472
sS'tender'
p1502
F0.19704433497536944
sS'rates released'
p1503
F0.11074197120708748
sS'agreed representations'
p1504
F0.11074197120708748
sS'trade commerce'
p1505
F0.11074197120708748
sS'home loan ahead'
p1506
F0.21321961620469082
sS'body today welcomed'
p1507
F0.21321961620469082
sS'various'
p1508
F0.29556650246305421
sS'recent months'
p1509
F0.11074197120708748
sS'conditions'
p1510
F0.19704433497536944
sS'european monetary institute'
p1511
F0.21321961620469082
sS'europe'
p1512
F0.59113300492610843
sS'recently'
p1513
F0.09852216748768472
sS'creating'
p1514
F0.19704433497536944
sS'world largest'
p1515
F0.11074197120708748
sS'people dkt cb'
p1516
F0.21321961620469082
sS'respondents'
p1517
F0.09852216748768472
sS'opposition'
p1518
F0.09852216748768472
sS'euro denominated'
p1519
F0.11074197120708748
sS'currency easily'
p1520
F0.11074197120708748
sS'european countries'
p1521
F0.11074197120708748
sS'prospects'
p1522
F0.09852216748768472
sS'loan ahead'
p1523
F0.11074197120708748
sS'improved'
p1524
F0.09852216748768472
sS'annual'
p1525
F0.09852216748768472
sS'tuesday citing'
p1526
F0.11074197120708748
sS'foreign'
p1527
F1.5763546798029555
sS'spain italy greece'
p1528
F0.21321961620469082
sS'connection'
p1529
F0.29556650246305421
sS'bank began'
p1530
F0.11074197120708748
sS'rbi sources'
p1531
F0.11074197120708748
sS'banks financial'
p1532
F0.11074197120708748
sS'bridges windows'
p1533
F0.11074197120708748
sS'supply'
p1534
F0.19704433497536944
sS'loan'
p1535
F0.09852216748768472
sS'make special arrangements'
p1536
F0.21321961620469082
sS'community'
p1537
F0.19704433497536944
sS'agents'
p1538
F0.09852216748768472
sS'costs according'
p1539
F0.11074197120708748
sS'financial indicators'
p1540
F0.11074197120708748
sS'january 1 1999'
p1541
F2.1321961620469083
sS'minister alain'
p1542
F0.11074197120708748
sS'currency leu'
p1543
F0.11074197120708748
sS'quoted romania central'
p1544
F0.21321961620469082
sS'monetary union statistics'
p1545
F0.21321961620469082
sS'help reduce costs'
p1546
F0.21321961620469082
sS'monthly'
p1547
F0.09852216748768472
sS'pass national legislation'
p1548
F0.21321961620469082
sS'currency board'
p1549
F0.33222591362126247
sS'political'
p1550
F0.19704433497536944
sS'group named'
p1551
F0.11074197120708748
sS'rates low'
p1552
F0.11074197120708748
sS'geoffrey'
p1553
F0.09852216748768472
sS'reduction'
p1554
F0.09852216748768472
sS'euro area'
p1555
F0.11074197120708748
sS'initiation'
p1556
F0.09852216748768472
sS'ireland'
p1557
F0.29556650246305421
sS'financial sovereignty'
p1558
F0.11074197120708748
sS'meeting'
p1559
F0.09852216748768472
sS'formally denied'
p1560
F0.11074197120708748
sS'mediterranean coast'
p1561
F0.11074197120708748
sS'investment opportunities'
p1562
F0.22148394241417496
sS'great'
p1563
F0.09852216748768472
sS'months later'
p1564
F0.11074197120708748
sS'crucial issue'
p1565
F0.11074197120708748
sS'determination'
p1566
F0.09852216748768472
sS'representative'
p1567
F0.09852216748768472
sS'demand'
p1568
F0.09852216748768472
sS'prices'
p1569
F0.29556650246305421
sS'states bank'
p1570
F0.11074197120708748
sS'look'
p1571
F0.09852216748768472
sS'expanded'
p1572
F0.19704433497536944
sS'uniform internationally agreed'
p1573
F0.21321961620469082
sS'governor'
p1574
F0.19704433497536944
sS'gold coins'
p1575
F0.11074197120708748
sS'start using euro'
p1576
F0.21321961620469082
sS'romanian commercial banks'
p1577
F0.21321961620469082
sS'finance commissioner told'
p1578
F0.21321961620469082
sS'nation european union'
p1579
F0.21321961620469082
sS'scheduled'
p1580
F0.59113300492610843
sS'portugal'
p1581
F0.29556650246305421
sS'indicative exchange rates'
p1582
F0.21321961620469082
sS'ready'
p1583
F0.19704433497536944
sS'director adrian vasilescu'
p1584
F0.21321961620469082
sS'euro zone'
p1585
F0.44296788482834992
sS'vanish'
p1586
F0.09852216748768472
sS'european movement stephen'
p1587
F0.21321961620469082
sS'economists predicting countries'
p1588
F0.21321961620469082
sS'commission firmly sticks'
p1589
F0.21321961620469082
sS'italy'
p1590
F0.68965517241379315
sS'grant'
p1591
F0.09852216748768472
sS'single currency euro'
p1592
F0.63965884861407252
sS'offer lower'
p1593
F0.11074197120708748
sS'wide opinion polls'
p1594
F0.21321961620469082
sS'9'
F0.19704433497536944
sS'products'
p1595
F0.09852216748768472
sS'prerequisite'
p1596
F0.09852216748768472
sS'particular financial'
p1597
F0.11074197120708748
sS'currencies'
p1598
F0.88669950738916259
sS'eu member nations'
p1599
F0.21321961620469082
sS'market transparency'
p1600
F0.11074197120708748
sS'ill informed'
p1601
F0.11074197120708748
sS'negotiate'
p1602
F0.09852216748768472
sS'finance ministers'
p1603
F0.22148394241417496
sS'traditional exports'
p1604
F0.11074197120708748
sS'named european'
p1605
F0.11074197120708748
sS'currency reserves'
p1606
F0.22148394241417496
sS'gold coins denominated'
p1607
F0.21321961620469082
sS'euro'
p1608
F10.83743842364532
sS'government increasingly'
p1609
F0.11074197120708748
sS'lower'
p1610
F0.19704433497536944
sS'task'
p1611
F0.09852216748768472
sS'shortest delay'
p1612
F0.11074197120708748
sS'concrete'
p1613
F0.19704433497536944
sS'bank chief'
p1614
F0.11074197120708748
sS'mass media'
p1615
F0.11074197120708748
sS'organization'
p1616
F0.09852216748768472
sS'local press'
p1617
F0.11074197120708748
sS'polled'
p1618
F0.09852216748768472
sS'informed 79'
p1619
F0.11074197120708748
sS'new single currency'
p1620
F1.0660980810234542
sS'polled agree'
p1621
F0.11074197120708748
sS'press'
p1622
F0.29556650246305421
sS'using'
p1623
F0.39408866995073888
sS'zambian bank'
p1624
F0.11074197120708748
sS'january 2002'
p1625
F0.11074197120708748
sS'alignment'
p1626
F0.09852216748768472
sS'netherlands austria portugal'
p1627
F0.42643923240938164
sS'cut'
p1628
F0.09852216748768472
sS'market public finance'
p1629
F0.21321961620469082
sS'admission'
p1630
F0.09852216748768472
sS'short term qualitative'
p1631
F0.21321961620469082
sS'director george mucibabici'
p1632
F0.21321961620469082
sS'commercial banks fear'
p1633
F0.21321961620469082
sS'non traditional'
p1634
F0.11074197120708748
sS'accounts statistics monetary'
p1635
F0.21321961620469082
sS'european community'
p1636
F0.11074197120708748
sS'tough budgetary criteria'
p1637
F0.21321961620469082
sS'new currency'
p1638
F0.88593576965669985
sS'perform euro services'
p1639
F0.21321961620469082
sS'quote prices'
p1640
F0.22148394241417496
sS'bid'
p1641
F0.19704433497536944
sS'union eu'
p1642
F0.33222591362126247
sS'french prime minister'
p1643
F0.21321961620469082
sS'matters'
p1644
F0.19704433497536944
sS'euro acceptable'
p1645
F0.11074197120708748
sS'currency duisenberg'
p1646
F0.11074197120708748
sS'non traditional exports'
p1647
F0.21321961620469082
sS'quoting official'
p1648
F0.11074197120708748
sS'european population'
p1649
F0.11074197120708748
sS'maintenance agency'
p1650
F0.11074197120708748
sS'success'
p1651
F0.09852216748768472
sS'ministry spokesman zhu'
p1652
F0.21321961620469082
sS'der spiegel magazine'
p1653
F0.21321961620469082
sS'banknotes'
p1654
F0.59113300492610843
sS'continue'
p1655
F0.29556650246305421
sS'popular'
p1656
F0.09852216748768472
sS'bulgarian national bank'
p1657
F0.21321961620469082
sS'essential'
p1658
F0.09852216748768472
sS'circulating completely'
p1659
F0.11074197120708748
sS'bucharest'
p1660
F0.09852216748768472
sS'automatically acceptable'
p1661
F0.11074197120708748
sS'clients starting'
p1662
F0.11074197120708748
sS'union member states'
p1663
F0.63965884861407252
sS'pierre'
p1664
F0.19704433497536944
sS'bank notes'
p1665
F0.11074197120708748
sS'single currency scheduled'
p1666
F0.21321961620469082
sS'strongest'
p1667
F0.09852216748768472
sS'economic'
p1668
F1.4778325123152709
sS'representative eu wide'
p1669
F0.21321961620469082
sS'euro mortgage'
p1670
F0.11074197120708748
sS'integration'
p1671
F0.19704433497536944
sS'euro dollar exchange'
p1672
F0.21321961620469082
sS'competitions'
p1673
F0.19704433497536944
sS'bnr director'
p1674
F0.11074197120708748
sS'civilization'
p1675
F0.09852216748768472
sS'eliminate'
p1676
F0.09852216748768472
sS'released today'
p1677
F0.11074197120708748
sS'transaction costs'
p1678
F0.11074197120708748
sS'cashless'
p1679
F0.09852216748768472
sS'include national accounts'
p1680
F0.21321961620469082
sS'300'
p1681
F0.09852216748768472
sS'15 members'
p1682
F0.11074197120708748
sS'member states beginning'
p1683
F0.21321961620469082
sS'international payment'
p1684
F0.11074197120708748
sS'agreement'
p1685
F0.09852216748768472
sS'stem'
p1686
F0.09852216748768472
sS'step'
p1687
F0.09852216748768472
sS'silguy european'
p1688
F0.11074197120708748
sS'emu rbi'
p1689
F0.11074197120708748
sS'euro compliance'
p1690
F0.11074197120708748
sS'european currency 20'
p1691
F0.21321961620469082
sS'goods'
p1692
F0.09852216748768472
sS'percent people'
p1693
F0.11074197120708748
sS'minister alain juppe'
p1694
F0.21321961620469082
sS'begin membership negotiations'
p1695
F0.21321961620469082
sS'euro launch'
p1696
F0.22148394241417496
sS'transparency resulting'
p1697
F0.11074197120708748
sS'geoffrey lister'
p1698
F0.11074197120708748
sS'france determination'
p1699
F0.11074197120708748
sS'maastricht treaty criteria'
p1700
F0.21321961620469082
sS'believe european currencies'
p1701
F0.21321961620469082
sS'planned single'
p1702
F0.11074197120708748
sS'japanese yen'
p1703
F0.11074197120708748
sS'preparatory european central'
p1704
F0.21321961620469082
sS'flung territories'
p1705
F0.11074197120708748
sS'existing deposits'
p1706
F0.11074197120708748
sS'statistics'
p1707
F0.39408866995073888
sS'recent colloquium'
p1708
F0.11074197120708748
sS'union market'
p1709
F0.11074197120708748
sS'question'
p1710
F0.09852216748768472
sS'long'
p1711
F0.09852216748768472
sS'economic ministers'
p1712
F0.11074197120708748
sS'worsening social'
p1713
F0.11074197120708748
sS'asked banks'
p1714
F0.11074197120708748
sS'export earners foreign'
p1715
F0.21321961620469082
sS'forward'
p1716
F0.09852216748768472
sS'latest monthly report'
p1717
F0.21321961620469082
sS'54 percent'
p1718
F0.11074197120708748
sS':'
F0.19704433497536944
sS'states beginning'
p1719
F0.11074197120708748
sS'invite'
p1720
F0.09852216748768472
sS'eurostat service'
p1721
F0.11074197120708748
sS'sighted'
p1722
F0.09852216748768472
sS'foreign ministry spokesman'
p1723
F0.21321961620469082
sS'reiterated'
p1724
F0.19704433497536944
sS'join euro'
p1725
F0.11074197120708748
sS'link'
p1726
F0.09852216748768472
sS'european parliament'
p1727
F0.11074197120708748
sS'posted'
p1728
F0.09852216748768472
sS'good prospects'
p1729
F0.11074197120708748
sS'zhu'
p1730
F0.19704433497536944
sS'thibault'
p1731
F0.09852216748768472
sS'entire process'
p1732
F0.11074197120708748
sS'issuing collector'
p1733
F0.11074197120708748
sS'uk'
p1734
F0.39408866995073888
sS'opinion polls conducted'
p1735
F0.21321961620469082
sS'fluctuations'
p1736
F0.19704433497536944
sS'artists art'
p1737
F0.11074197120708748
sS'writing checks'
p1738
F0.11074197120708748
sS'poor sighted people'
p1739
F0.21321961620469082
sS'european civilization'
p1740
F0.11074197120708748
sS'july 1997'
p1741
F0.11074197120708748
sS'ordered'
p1742
F0.09852216748768472
sS'special designs'
p1743
F0.11074197120708748
sS'period starting'
p1744
F0.11074197120708748
sS'influence'
p1745
F0.09852216748768472
sS'single'
p1746
F5.7142857142857144
sS'diverse'
p1747
F0.09852216748768472
sS'combined european union'
p1748
F0.21321961620469082
sS'woodard'
p1749
F0.09852216748768472
sS'currency users'
p1750
F0.11074197120708748
sS'confusions juppe'
p1751
F0.11074197120708748
sS'enormous trade deficit'
p1752
F0.21321961620469082
sS'fears'
p1753
F0.09852216748768472
sS'preventing'
p1754
F0.09852216748768472
sS'application'
p1755
F0.09852216748768472
sS'george mucibabici'
p1756
F0.11074197120708748
sS'considering using'
p1757
F0.11074197120708748
sS'report issued'
p1758
F0.11074197120708748
sS'rates sustained'
p1759
F0.11074197120708748
sS'bulgaria foreign'
p1760
F0.11074197120708748
sS'balanced world'
p1761
F0.11074197120708748
sS'users'
p1762
F0.09852216748768472
sS'european economic'
p1763
F0.11074197120708748
sS'central bank president'
p1764
F0.21321961620469082
sS'problems'
p1765
F0.09852216748768472
sS'beginning january 1'
p1766
F0.21321961620469082
sS'prepared'
p1767
F0.39408866995073888
sS'romanian bankers'
p1768
F0.11074197120708748
sS'central banks'
p1769
F0.11074197120708748
sS'new single'
p1770
F0.55370985603543743
sS'broadly successful'
p1771
F0.11074197120708748
sS'make special'
p1772
F0.11074197120708748
sS'state agencies including'
p1773
F0.21321961620469082
sS'required'
p1774
F0.29556650246305421
sS'budgetary criteria'
p1775
F0.11074197120708748
sS'economists fear'
p1776
F0.11074197120708748
sS'2002'
p1777
F0.68965517241379315
sS'2001'
p1778
F0.09852216748768472
sS'romania central bank'
p1779
F0.85287846481876328
sS'requires'
p1780
F0.09852216748768472
sS'noon'
p1781
F0.09852216748768472
sS'code'
p1782
F0.39408866995073888
sS'issued'
p1783
F0.59113300492610843
sS'79 percent feel'
p1784
F0.21321961620469082
sS'existing'
p1785
F0.09852216748768472
sS'currency thursday'
p1786
F0.11074197120708748
sS'maastricht'
p1787
F0.19704433497536944
sS'gb'
p1788
F0.09852216748768472
sS'payments balance isarescu'
p1789
F0.21321961620469082
sS'country state'
p1790
F0.11074197120708748
sS'trade deficit'
p1791
F0.11074197120708748
sS'particular financial institutions'
p1792
F0.21321961620469082
sS'united states bank'
p1793
F0.21321961620469082
sS'languages'
p1794
F0.09852216748768472
sS'citing'
p1795
F0.09852216748768472
sS'stable'
p1796
F0.19704433497536944
sS'include'
p1797
F0.68965517241379315
sS'romanian total foreign'
p1798
F0.21321961620469082
sS'trade balance'
p1799
F0.11074197120708748
sS'exert influence'
p1800
F0.11074197120708748
sS'portfolios'
p1801
F0.09852216748768472
sS'wave'
p1802
F0.09852216748768472
sS'central bank ecb'
p1803
F0.21321961620469082
sS'putting'
p1804
F0.09852216748768472
sS'pressure group'
p1805
F0.11074197120708748
sS'1999 reported'
p1806
F0.11074197120708748
sS'tuesday citing sources'
p1807
F0.21321961620469082
sS'entire'
p1808
F0.09852216748768472
sS'secretly drawing'
p1809
F0.11074197120708748
sS'accept euro'
p1810
F0.11074197120708748
sS'notes'
p1811
F0.29556650246305421
sS'government level'
p1812
F0.11074197120708748
sS'currency :'
p1813
F0.11074197120708748
sS'economic situation'
p1814
F0.11074197120708748
sS'1999 bnr'
p1815
F0.11074197120708748
sS'noted'
p1816
F0.09852216748768472
sS'ireland creating'
p1817
F0.11074197120708748
sS'member nations agreed'
p1818
F0.21321961620469082
sS'rates sustained economic'
p1819
F0.21321961620469082
sS'month period'
p1820
F0.11074197120708748
sS'quoted duisenberg'
p1821
F0.11074197120708748
sS'mediterranean'
p1822
F0.09852216748768472
sS'modified'
p1823
F0.09852216748768472
sS'german companies'
p1824
F0.22148394241417496
sS'largest foreign'
p1825
F0.11074197120708748
sS'britain remains'
p1826
F0.11074197120708748
sS'second largest'
p1827
F0.11074197120708748
sS'help facilitate'
p1828
F0.11074197120708748
sS'euro indicators'
p1829
F0.22148394241417496
sS'paintings'
p1830
F0.09852216748768472
sS'thursday quoted romania'
p1831
F0.21321961620469082
sS'spiegel quoted'
p1832
F0.11074197120708748
sS'schedule'
p1833
F0.09852216748768472
sS'permitted indian banks'
p1834
F0.21321961620469082
sS'access'
p1835
F0.09852216748768472
sS'indian'
p1836
F0.19704433497536944
sS'capital'
p1837
F0.09852216748768472
sS'domestic product'
p1838
F0.11074197120708748
sS'national accounts statistics'
p1839
F0.21321961620469082
sS'body'
p1840
F0.29556650246305421
sS'effectively comes'
p1841
F0.11074197120708748
sS'4217'
p1842
F0.09852216748768472
sS'exchange reserves'
p1843
F0.11074197120708748
sS'exchange'
p1844
F0.98522167487684731
sS'currency operators'
p1845
F0.11074197120708748
sS'spain france'
p1846
F0.22148394241417496
sS'commercial'
p1847
F0.39408866995073888
sS'bank ecb announced'
p1848
F0.21321961620469082
sS'desired'
p1849
F0.09852216748768472
sS'leu'
p1850
F0.09852216748768472
sS'lev'
p1851
F0.68965517241379315
sS'hard currency'
p1852
F0.22148394241417496
sS'central bank national'
p1853
F0.21321961620469082
sS'press reports today'
p1854
F0.21321961620469082
sS'starting january 1'
p1855
F0.21321961620469082
sS'convert'
p1856
F0.09852216748768472
sS'treaty criteria'
p1857
F0.11074197120708748
sS'technical'
p1858
F0.19704433497536944
sS'banks announcement'
p1859
F0.11074197120708748
sS'dispensers'
p1860
F0.09852216748768472
sS'37'
p1861
F0.09852216748768472
sS'policy vasilescu'
p1862
F0.11074197120708748
sS'survey'
p1863
F0.19704433497536944
sS'opinion'
p1864
F0.39408866995073888
sS'residents'
p1865
F0.09852216748768472
sS'private investors'
p1866
F0.11074197120708748
sS'information program'
p1867
F0.11074197120708748
sS'foreign partners'
p1868
F0.11074197120708748
sS'named'
p1869
F0.19704433497536944
sS'mwenda director'
p1870
F0.11074197120708748
sS'foreign exchange reserves'
p1871
F0.21321961620469082
sS'euros investors'
p1872
F0.11074197120708748
sS'wim'
p1873
F0.19704433497536944
sS'national legislation'
p1874
F0.11074197120708748
sS'private'
p1875
F0.09852216748768472
sS'christmas 1995'
p1876
F0.11074197120708748
sS'austria'
p1877
F0.29556650246305421
sS'various preparations'
p1878
F0.11074197120708748
sS'operating costs'
p1879
F0.11074197120708748
sS'apply'
p1880
F0.09852216748768472
sS'director george'
p1881
F0.11074197120708748
sS'european currency 37'
p1882
F0.21321961620469082
sS'spokesman today'
p1883
F0.11074197120708748
sS'use'
p1884
F1.3793103448275863
sS'actual banknotes'
p1885
F0.11074197120708748
sS'eu 12'
p1886
F0.11074197120708748
sS'remains'
p1887
F0.09852216748768472
sS'ministers'
p1888
F0.59113300492610843
sS'attribute'
p1889
F0.09852216748768472
sS'timetable'
p1890
F0.19704433497536944
sS'gross domestic product'
p1891
F0.21321961620469082
sS'country state institutions'
p1892
F0.21321961620469082
sS'currency boundaries'
p1893
F0.11074197120708748
sS'parliament'
p1894
F0.09852216748768472
sS'formally'
p1895
F0.29556650246305421
sS'charge cards'
p1896
F0.11074197120708748
sS'started'
p1897
F0.19704433497536944
sS'local press reports'
p1898
F0.21321961620469082
sS'cooperate'
p1899
F0.09852216748768472
sS'nt expect'
p1900
F0.11074197120708748
sS'early august'
p1901
F0.11074197120708748
sS'mean substantial changes'
p1902
F0.21321961620469082
sS'government welcomes'
p1903
F0.11074197120708748
sS'currency euro acceptable'
p1904
F0.21321961620469082
sS'clients'
p1905
F0.09852216748768472
sS'ec spokesman today'
p1906
F0.21321961620469082
sS'currency policy'
p1907
F0.11074197120708748
sS'union new single'
p1908
F0.21321961620469082
sS'conformity'
p1909
F0.09852216748768472
sS'proof'
p1910
F0.09852216748768472
sS'include country emblems'
p1911
F0.21321961620469082
sS'representative eu'
p1912
F0.11074197120708748
sS'single currency comes'
p1913
F0.21321961620469082
sS'process'
p1914
F0.09852216748768472
sS'discussed'
p1915
F0.09852216748768472
sS'today welcomed'
p1916
F0.11074197120708748
sS'include national'
p1917
F0.11074197120708748
sS'high'
p1918
F0.09852216748768472
sS'effectively'
p1919
F0.09852216748768472
sS'reserves'
p1920
F0.78817733990147776
sS'enormous trade'
p1921
F0.11074197120708748
sS'southern africa comesa'
p1922
F0.21321961620469082
sS'counterfeit'
p1923
F0.09852216748768472
sS'european currency recently'
p1924
F0.21321961620469082
sS'united'
p1925
F0.09852216748768472
sS'bulgarian finance minister'
p1926
F0.21321961620469082
sS'traders'
p1927
F0.09852216748768472
sS'located'
p1928
F0.09852216748768472
sS'germany france'
p1929
F0.11074197120708748
sS'collector coins'
p1930
F0.11074197120708748
sS'instead'
p1931
F0.09852216748768472
sS'establishment'
p1932
F0.09852216748768472
sS'circular'
p1933
F0.09852216748768472
sS'border investment opportunities'
p1934
F0.21321961620469082
sS'dispensers despite'
p1935
F0.11074197120708748
sS'juppe today'
p1936
F0.11074197120708748
sS'guarantee currency'
p1937
F0.11074197120708748
sS'country financial'
p1938
F0.11074197120708748
sS'freely allowed'
p1939
F0.11074197120708748
sS'improved market'
p1940
F0.11074197120708748
sS'report released'
p1941
F0.11074197120708748
sS'plan concerns'
p1942
F0.11074197120708748
sS'realized'
p1943
F0.09852216748768472
sS'abn amro'
p1944
F0.11074197120708748
sS'element'
p1945
F0.09852216748768472
sS'opportunities reduced currency'
p1946
F0.21321961620469082
sS'chief'
p1947
F0.19704433497536944
sS'allow'
p1948
F0.19704433497536944
sS'internationally agreed'
p1949
F0.11074197120708748
sS'nations agreed unanimously'
p1950
F0.21321961620469082
sS'stamped'
p1951
F0.09852216748768472
sS'euro notes'
p1952
F0.11074197120708748
sS'foreign exchange reserve'
p1953
F0.21321961620469082
sS'ministers decided'
p1954
F0.11074197120708748
sS'produced'
p1955
F0.09852216748768472
sS'including'
p1956
F0.09852216748768472
sS'investment opportunities reduced'
p1957
F0.21321961620469082
sS'delay'
p1958
F0.19704433497536944
sS'rexrodt'
p1959
F0.19704433497536944
sS'national bank'
p1960
F0.11074197120708748
sS'exchange rates especially'
p1961
F0.21321961620469082
sS'people worry'
p1962
F0.11074197120708748
sS'thailand trading'
p1963
F0.11074197120708748
sS'labor'
p1964
F0.09852216748768472
sS'volatility'
p1965
F0.09852216748768472
sS'eur'
p1966
F0.09852216748768472
sS'designs'
p1967
F0.19704433497536944
sS'adopt eu rules'
p1968
F0.21321961620469082
sS'single european currency'
p1969
F2.3454157782515992
sS'prime minister'
p1970
F0.11074197120708748
sS'operator'
p1971
F0.09852216748768472
sS'hands'
p1972
F0.09852216748768472
sS'german economics'
p1973
F0.11074197120708748
sS'group named european'
p1974
F0.21321961620469082
sS'national currency'
p1975
F0.55370985603543743
sS'make use'
p1976
F0.11074197120708748
sS'day'
p1977
F0.49261083743842365
sS'substantial changes'
p1978
F0.11074197120708748
sS'february'
p1979
F0.09852216748768472
sS'values ranging'
p1980
F0.11074197120708748
sS'afp'
p1981
F0.19704433497536944
sS'european nations'
p1982
F0.11074197120708748
sS'earners foreign currency'
p1983
F0.21321961620469082
sS'guenter'
p1984
F0.09852216748768472
sS'accounts'
p1985
F0.39408866995073888
sS'financial sense'
p1986
F0.11074197120708748
sS'monetary union emu'
p1987
F0.42643923240938164
sS'exchange posted'
p1988
F0.11074197120708748
sS'european movement'
p1989
F0.22148394241417496
sS'euro bank notes'
p1990
F0.21321961620469082
sS'original members'
p1991
F0.11074197120708748
sS'perform services'
p1992
F0.11074197120708748
sS'nations agreed'
p1993
F0.11074197120708748
sS'seven notes'
p1994
F0.11074197120708748
sS'finance minister muravei'
p1995
F0.21321961620469082
sS'related'
p1996
F0.09852216748768472
sS'french franc'
p1997
F0.11074197120708748
sS'society'
p1998
F0.09852216748768472
sS'currency policy vasilescu'
p1999
F0.21321961620469082
sS'80'
p2000
F0.09852216748768472
sS'special'
p2001
F0.29556650246305421
sS'stability adding'
p2002
F0.11074197120708748
sS'secretly'
p2003
F0.09852216748768472
sS'help facilitate trade'
p2004
F0.21321961620469082
sS'cashless tradings'
p2005
F0.11074197120708748
sS'million people'
p2006
F0.11074197120708748
sS'union member'
p2007
F0.33222591362126247
sS'wholly'
p2008
F0.09852216748768472
sS'summit confirmed sunday'
p2009
F0.21321961620469082
sS'scriptural'
p2010
F0.09852216748768472
sS'cause'
p2011
F0.09852216748768472
sS'currency : history'
p2012
F0.21321961620469082
sS'announced'
p2013
F0.19704433497536944
sS'franc'
p2014
F0.09852216748768472
sS'single currency means'
p2015
F0.21321961620469082
sS'enhance exchange'
p2016
F0.11074197120708748
sS'ecb'
p2017
F0.19704433497536944
sS'euro currency early'
p2018
F0.21321961620469082
sS'government does'
p2019
F0.11074197120708748
sS'release'
p2020
F0.09852216748768472
sS'ecu'
p2021
F0.09852216748768472
sS'foreign policy'
p2022
F0.11074197120708748
sS'central bank bundesbank'
p2023
F0.21321961620469082
sS'dkt cb'
p2024
F0.11074197120708748
sS'shortest'
p2025
F0.09852216748768472
sS'movement stephen woodard'
p2026
F0.21321961620469082
sS'today formally'
p2027
F0.11074197120708748
sS'adrian'
p2028
F0.09852216748768472
sS'latest economic'
p2029
F0.11074197120708748
sS'facilitate'
p2030
F0.09852216748768472
sS'stimulate'
p2031
F0.09852216748768472
sS'radev'
p2032
F0.09852216748768472
sS'mwenda'
p2033
F0.09852216748768472
sS'soldered'
p2034
F0.09852216748768472
sS'transaction currency'
p2035
F0.11074197120708748
sS'government does nt'
p2036
F0.21321961620469082
sS'juppe reiterated france'
p2037
F0.21321961620469082
sS'central bank governor'
p2038
F0.21321961620469082
sS'reserve currency'
p2039
F0.22148394241417496
sS'new year day'
p2040
F0.42643923240938164
sS'begin negotiations'
p2041
F0.11074197120708748
sS'trading volume'
p2042
F0.11074197120708748
sS'lushinga'
p2043
F0.19704433497536944
sS'trading partners'
p2044
F0.11074197120708748
sS'decision making'
p2045
F0.11074197120708748
sS'far flung'
p2046
F0.11074197120708748
sS'management'
p2047
F0.09852216748768472
sS'publication'
p2048
F0.09852216748768472
sS'governor mugur isarescu'
p2049
F0.21321961620469082
sS'revealed'
p2050
F0.09852216748768472
sS'relations'
p2051
F0.09852216748768472
sS'european summit'
p2052
F0.22148394241417496
sS'priority'
p2053
F0.09852216748768472
sS'central bank does'
p2054
F0.21321961620469082
sS'bnr indicative exchange'
p2055
F0.21321961620469082
sS'seven face values'
p2056
F0.21321961620469082
sS'final'
p2057
F0.09852216748768472
sS'completely replace'
p2058
F0.11074197120708748
sS'accompany'
p2059
F0.09852216748768472
sS'concrete steps'
p2060
F0.11074197120708748
sS'wo nt'
p2061
F0.33222591362126247
sS'january 1999 reported'
p2062
F0.21321961620469082
sS'spiegel'
p2063
F0.19704433497536944
sS'belgium austria luxembourg'
p2064
F0.21321961620469082
sS'july'
p2065
F0.39408866995073888
sS'sweden'
p2066
F0.19704433497536944
sS'spokesman zhu'
p2067
F0.11074197120708748
sS'europe new currency'
p2068
F0.21321961620469082
sS'duisenberg'
p2069
F0.88669950738916259
sS'term der'
p2070
F0.11074197120708748
sS'eu member countries'
p2071
F0.21321961620469082
sS'integration help'
p2072
F0.11074197120708748
sS'border'
p2073
F0.09852216748768472
sS'foreign currency accounts'
p2074
F0.21321961620469082
sS'agency'
p2075
F0.29556650246305421
sS'able'
p2076
F0.19704433497536944
sS'mid'
p2077
F0.09852216748768472
sS'biggest mortgage lender'
p2078
F0.21321961620469082
sS'concerns'
p2079
F0.09852216748768472
sS'madrid summit'
p2080
F0.11074197120708748
sS'agence'
p2081
F0.09852216748768472
sS'1999 introduction'
p2082
F0.11074197120708748
sS'euro bank'
p2083
F0.11074197120708748
sS'stimulate european integration'
p2084
F0.21321961620469082
sS'unless'
p2085
F0.19704433497536944
sS'euro mortgages'
p2086
F0.22148394241417496
sS'believe euro'
p2087
F0.11074197120708748
sS'comesa'
p2088
F0.19704433497536944
sS'eu wide'
p2089
F0.11074197120708748
sS'payment'
p2090
F0.09852216748768472
sS'consequences'
p2091
F0.09852216748768472
sS'37 percent'
p2092
F0.11074197120708748
sS'improved market transparency'
p2093
F0.21321961620469082
sS'commission ec'
p2094
F0.11074197120708748
sS'face'
p2095
F0.29556650246305421
sS'legacy emu'
p2096
F0.11074197120708748
sS'fact'
p2097
F0.09852216748768472
sS'qualms'
p2098
F0.09852216748768472
sS'currency unit'
p2099
F0.33222591362126247
sS'confusions juppe gave'
p2100
F0.21321961620469082
sS'agreed'
p2101
F0.29556650246305421
sS'today news conference'
p2102
F0.21321961620469082
sS'rotating'
p2103
F0.09852216748768472
sS'chief wim duisenberg'
p2104
F0.21321961620469082
sS'planning'
p2105
F0.19704433497536944
sS'germany spain'
p2106
F0.22148394241417496
sS'euro note'
p2107
F0.11074197120708748
sS'reduced currency risks'
p2108
F0.21321961620469082
sS'fear'
p2109
F0.19704433497536944
sS'economist'
p2110
F0.09852216748768472
sS'debate'
p2111
F0.19704433497536944
sS'partners'
p2112
F0.19704433497536944
sS'unanimously'
p2113
F0.09852216748768472
sS'based'
p2114
F0.29556650246305421
sS'300 million'
p2115
F0.11074197120708748
sS'jan'
p2116
F0.09852216748768472
sS'candidates'
p2117
F0.09852216748768472
sS'local'
p2118
F0.29556650246305421
sS'little fact'
p2119
F0.11074197120708748
sS'netherlands austria'
p2120
F0.22148394241417496
sS'monetary merger'
p2121
F0.22148394241417496
sS'currency scheduled'
p2122
F0.11074197120708748
sS'bonds'
p2123
F0.19704433497536944
sS'currency euro'
p2124
F0.33222591362126247
sS'exchanges'
p2125
F0.09852216748768472
sS'economically ready'
p2126
F0.11074197120708748
sS'european union'
p2127
F1.7718715393133997
sS'evolution'
p2128
F0.09852216748768472
sS'places'
p2129
F0.19704433497536944
sS'denmark'
p2130
F0.09852216748768472
sS'euro use'
p2131
F0.22148394241417496
sS'director adrian'
p2132
F0.11074197120708748
sS'fixed'
p2133
F0.19704433497536944
sS'continue issuing collector'
p2134
F0.21321961620469082
sS'view'
p2135
F0.19704433497536944
sS'monday onward internet'
p2136
F0.21321961620469082
sS'official'
p2137
F0.59113300492610843
sS'national'
p2138
F1.5763546798029555
sS'legacy'
p2139
F0.09852216748768472
sS'final step'
p2140
F0.11074197120708748
sS'greece'
p2141
F0.19704433497536944
sS'euro freely convert'
p2142
F0.21321961620469082
sS'term qualitative'
p2143
F0.11074197120708748
sS'working group'
p2144
F0.11074197120708748
sS'summit confirmed'
p2145
F0.11074197120708748
sS'report released today'
p2146
F0.21321961620469082
sS'january 1 2002'
p2147
F0.63965884861407252
sS'eu citizens'
p2148
F0.11074197120708748
sS'eu 12 stars'
p2149
F0.21321961620469082
sS'favor'
p2150
F0.09852216748768472
sS'state'
p2151
F0.39408866995073888
sS'progress'
p2152
F0.09852216748768472
sS'midnight'
p2153
F0.09852216748768472
sS'mint euro coins'
p2154
F0.21321961620469082
sS'new code'
p2155
F0.11074197120708748
sS'bridges'
p2156
F0.09852216748768472
sS'importance'
p2157
F0.09852216748768472
sS'britain biggest'
p2158
F0.11074197120708748
sS'agencies'
p2159
F0.09852216748768472
sS'single currency plan'
p2160
F0.21321961620469082
sS'key'
p2161
F0.19704433497536944
sS'overhaul'
p2162
F0.09852216748768472
sS'counterfeiting'
p2163
F0.09852216748768472
sS'freely'
p2164
F0.19704433497536944
sS'taking'
p2165
F0.09852216748768472
sS'governing council'
p2166
F0.11074197120708748
sS'member states'
p2167
F0.55370985603543743
sS'tactical'
p2168
F0.09852216748768472
sS'european union single'
p2169
F0.21321961620469082
sS'15 countries'
p2170
F0.11074197120708748
sS'budgetary'
p2171
F0.09852216748768472
sS'france presse afp'
p2172
F0.21321961620469082
sS'573'
p2173
F0.09852216748768472
sS'cb'
p2174
F0.09852216748768472
sS'tuesday'
p2175
F0.19704433497536944
sS'cross border investment'
p2176
F0.21321961620469082
sS'euro savings accounts'
p2177
F0.21321961620469082
sS'today news'
p2178
F0.11074197120708748
sS'thailand trading volume'
p2179
F0.21321961620469082
sS'july 1 2002'
p2180
F0.21321961620469082
sS'december european'
p2181
F0.11074197120708748
sS'dollars duisenberg'
p2182
F0.11074197120708748
sS'addition'
p2183
F0.09852216748768472
sS'founding members'
p2184
F0.11074197120708748
sS'bulgarian government plans'
p2185
F0.21321961620469082
sS'indicators'
p2186
F0.39408866995073888
sS'eu comes'
p2187
F0.11074197120708748
sS'reports issued'
p2188
F0.11074197120708748
sS'legislation putting'
p2189
F0.11074197120708748
sS'executive geoffrey'
p2190
F0.11074197120708748
sS'combined european'
p2191
F0.11074197120708748
sS'present'
p2192
F0.19704433497536944
sS'exchange rates released'
p2193
F0.21321961620469082
sS'zambian bank official'
p2194
F0.21321961620469082
sS'integration help establish'
p2195
F0.21321961620469082
sS'britain'
p2196
F0.68965517241379315
sS'value'
p2197
F0.09852216748768472
sS'rbi'
p2198
F0.39408866995073888
sS'romanian banking'
p2199
F0.11074197120708748
sS'statistics monetary'
p2200
F0.11074197120708748
sS'official reserves'
p2201
F0.11074197120708748
sS'coins early august'
p2202
F0.21321961620469082
sS'arrangements'
p2203
F0.19704433497536944
sS'watched'
p2204
F0.09852216748768472
sS'partner'
p2205
F0.09852216748768472
sS'alain juppe today'
p2206
F0.21321961620469082
sS'ecb governing'
p2207
F0.11074197120708748
sS'1 2002'
p2208
F0.44296788482834992
sS'various tiny'
p2209
F0.11074197120708748
sS'began'
p2210
F0.09852216748768472
sS'administration'
p2211
F0.09852216748768472
sS'cross'
p2212
F0.09852216748768472
sS'member'
p2213
F0.68965517241379315
sS'unity'
p2214
F0.09852216748768472
sS'sterling mortgages'
p2215
F0.11074197120708748
sS'currency codes'
p2216
F0.11074197120708748
sS'mean substantial'
p2217
F0.11074197120708748
sS'chinese government'
p2218
F0.11074197120708748
sS'tapped'
p2219
F0.09852216748768472
sS'tiny places'
p2220
F0.11074197120708748
sS'government official'
p2221
F0.11074197120708748
sS'http'
p2222
F0.09852216748768472
sS'currency debate'
p2223
F0.11074197120708748
sS'juppe gave'
p2224
F0.11074197120708748
sS'senior economist'
p2225
F0.11074197120708748
sS'despite skepticism'
p2226
F0.11074197120708748
sS'issuance'
p2227
F0.19704433497536944
sS'current european'
p2228
F0.11074197120708748
sS'prices industry labor'
p2229
F0.21321961620469082
sS'europe new'
p2230
F0.33222591362126247
sS'expanded investment opportunities'
p2231
F0.21321961620469082
sS'contribution'
p2232
F0.09852216748768472
sS'monitor carefully'
p2233
F0.11074197120708748
sS'transaction'
p2234
F0.19704433497536944
sS'france ireland italy'
p2235
F0.42643923240938164
sS'afp quoting'
p2236
F0.11074197120708748
sS'maastricht treaty'
p2237
F0.22148394241417496
sS'help economic'
p2238
F0.11074197120708748
sS'minuscule islands'
p2239
F0.11074197120708748
sS'firstly'
p2240
F0.09852216748768472
sS'undertaken'
p2241
F0.09852216748768472
sS'drawing'
p2242
F0.09852216748768472
sS'latest'
p2243
F0.19704433497536944
sS'monday onward'
p2244
F0.11074197120708748
sS'increasingly'
p2245
F0.09852216748768472
sS'executive'
p2246
F0.19704433497536944
sS'domestic'
p2247
F0.39408866995073888
sS'domestic money'
p2248
F0.22148394241417496
sS'sources'
p2249
F0.29556650246305421
sS'tough'
p2250
F0.09852216748768472
sS'magazine quoted'
p2251
F0.11074197120708748
sS'new money'
p2252
F0.11074197120708748
sS'euro related information'
p2253
F0.21321961620469082
sS'onward'
p2254
F0.09852216748768472
sS'juppe demanded'
p2255
F0.11074197120708748
sS'deposits'
p2256
F0.19704433497536944
sS'realize'
p2257
F0.09852216748768472
sS'emblems'
p2258
F0.09852216748768472
sS'citizen'
p2259
F0.09852216748768472
sS'confusions'
p2260
F0.19704433497536944
sS'include euro'
p2261
F0.11074197120708748
sS'increasingly eurosceptical'
p2262
F0.11074197120708748
sS'alain juppe'
p2263
F0.11074197120708748
sS'government'
p2264
F0.98522167487684731
sS'blueprints'
p2265
F0.09852216748768472
sS'non members'
p2266
F0.11074197120708748
sS'people feel'
p2267
F0.11074197120708748
sS'belgium'
p2268
F0.39408866995073888
sS'quoted european central'
p2269
F0.21321961620469082
sS'new currency unit'
p2270
F0.21321961620469082
sS'prominent'
p2271
F0.09852216748768472
sS'loss'
p2272
F0.09852216748768472
sS'doorways'
p2273
F0.09852216748768472
sS'helpful'
p2274
F0.09852216748768472
sS'mucibabici told'
p2275
F0.11074197120708748
sS'qualitative'
p2276
F0.09852216748768472
sS'national economic'
p2277
F0.11074197120708748
sS'financial indicators external'
p2278
F0.21321961620469082
sS'payments'
p2279
F0.19704433497536944
sS'leaves'
p2280
F0.09852216748768472
sS'italian'
p2281
F0.09852216748768472
sS'accessible'
p2282
F0.09852216748768472
sS'taken concrete'
p2283
F0.11074197120708748
sS'recent eu questionnaire'
p2284
F0.21321961620469082
sS'financial life'
p2285
F0.11074197120708748
sS'question concerning'
p2286
F0.11074197120708748
sS'agence france presse'
p2287
F0.21321961620469082
sS'growth'
p2288
F0.09852216748768472
sS'export'
p2289
F0.09852216748768472
sS'recommendation'
p2290
F0.09852216748768472
sS'home'
p2291
F0.09852216748768472
sS'halifax'
p2292
F0.09852216748768472
sS'employment'
p2293
F0.19704433497536944
sS'general directorate'
p2294
F0.11074197120708748
sS'present national currencies'
p2295
F0.21321961620469082
sS'broad'
p2296
F0.09852216748768472
sS'earners foreign'
p2297
F0.11074197120708748
sS'belgium germany spain'
p2298
F0.42643923240938164
sS'consultative'
p2299
F0.09852216748768472
sS'does'
p2300
F0.29556650246305421
sS'circular issued'
p2301
F0.11074197120708748
sS'euro wo'
p2302
F0.11074197120708748
sS'eu membership'
p2303
F0.11074197120708748
sS'public finance'
p2304
F0.11074197120708748
sS'billion coins'
p2305
F0.22148394241417496
sS'monetary'
p2306
F1.6748768472906401
sS'zone domestic economic'
p2307
F0.21321961620469082
sS'pressure'
p2308
F0.09852216748768472
sS'union 15 members'
p2309
F0.21321961620469082
sS'stage'
p2310
F0.29556650246305421
sS'actual'
p2311
F0.19704433497536944
sS'carried'
p2312
F0.09852216748768472
sS'domestic economic situation'
p2313
F0.21321961620469082
sS'country official reserves'
p2314
F0.21321961620469082
sS'code eur'
p2315
F0.11074197120708748
sS'denied newspaper'
p2316
F0.11074197120708748
sS'detailed plans'
p2317
F0.11074197120708748
sS'state agencies'
p2318
F0.11074197120708748
sS'introduced'
p2319
F0.19704433497536944
sS'key euro'
p2320
F0.11074197120708748
sS'country commercial'
p2321
F0.11074197120708748
sS'eurosceptical'
p2322
F0.09852216748768472
sS'commitment'
p2323
F0.09852216748768472
sS'countries stop circulating'
p2324
F0.21321961620469082
sS'members soldered'
p2325
F0.11074197120708748
sS'artists'
p2326
F0.09852216748768472
sS'banks fear little'
p2327
F0.21321961620469082
sS'currency director'
p2328
F0.11074197120708748
sS'housing'
p2329
F0.09852216748768472
sS'bingley plans'
p2330
F0.11074197120708748
sS'biggest'
p2331
F0.19704433497536944
sS'preparatory european'
p2332
F0.11074197120708748
sS'maintenance'
p2333
F0.09852216748768472
sS'mass printing'
p2334
F0.11074197120708748
sS'grant legal'
p2335
F0.11074197120708748
sS'union eu juppe'
p2336
F0.21321961620469082
sS'preparations'
p2337
F0.39408866995073888
sS'volume'
p2338
F0.09852216748768472
sS'european pressure group'
p2339
F0.21321961620469082
sS'gain'
p2340
F0.09852216748768472
sS'convergence'
p2341
F0.09852216748768472
sS'strong opposition'
p2342
F0.11074197120708748
sS'st pierre'
p2343
F0.22148394241417496
sS'der spiegel'
p2344
F0.11074197120708748
sS'reserve bank'
p2345
F0.11074197120708748
sS'informed way'
p2346
F0.11074197120708748
sS'1 1999 preparations'
p2347
F0.21321961620469082
sS'european single'
p2348
F1.1074197120708749
sS'executive geoffrey lister'
p2349
F0.21321961620469082
sS'microstates located wholly'
p2350
F0.21321961620469082
sS'free information'
p2351
F0.11074197120708748
sS'begun'
p2352
F0.19704433497536944
sS'currency early'
p2353
F0.11074197120708748
sS'macro economy'
p2354
F0.11074197120708748
sS'policy vasilescu added'
p2355
F0.21321961620469082
sS'functions'
p2356
F0.09852216748768472
sS'bank does'
p2357
F0.22148394241417496
sS'belgium austria'
p2358
F0.11074197120708748
sS'eu finance'
p2359
F0.11074197120708748
sS'variety'
p2360
F0.09852216748768472
sS'savings accounts'
p2361
F0.11074197120708748
sS'percent'
p2362
F1.083743842364532
sS'watched duisenberg'
p2363
F0.11074197120708748
sS'legacy emu currencies'
p2364
F0.21321961620469082
sS'spokesman zhu bangzao'
p2365
F0.21321961620469082
sS'governor added'
p2366
F0.11074197120708748
sS'foreign exchange operator'
p2367
F0.21321961620469082
sS'taken concrete steps'
p2368
F0.21321961620469082
sS'concrete paintings'
p2369
F0.11074197120708748
sS'fact sooddard called'
p2370
F0.21321961620469082
sS'demanded french'
p2371
F0.11074197120708748
sS'monday'
p2372
F0.59113300492610843
sS'pressure group named'
p2373
F0.21321961620469082
sS'euro thanks'
p2374
F0.11074197120708748
sS'economic situation duisenberg'
p2375
F0.21321961620469082
sS'frankfurt'
p2376
F0.39408866995073888
sS'european economy'
p2377
F0.22148394241417496
sS'george mucibabici told'
p2378
F0.21321961620469082
sS'european union 15'
p2379
F0.42643923240938164
sS'european union member'
p2380
F0.63965884861407252
sS'compete'
p2381
F0.09852216748768472
sS'special task'
p2382
F0.11074197120708748
sS'euro instead'
p2383
F0.11074197120708748
sS'strategical'
p2384
F0.09852216748768472
s.